; ModuleID = '38t6mdbygg3mkjwz'
source_filename = "38t6mdbygg3mkjwz"
target datalayout = "e-m:o-p270:32:32-p271:32:32-p272:64:64-i64:64-f80:128-n8:16:32:64-S128"
target triple = "x86_64-apple-macosx10.7.0"

%"std::fmt::Formatter" = type { [0 x i64], { i64, i64 }, [0 x i64], { i64, i64 }, [0 x i64], { {}*, [3 x i64]* }, [0 x i32], i32, [0 x i32], i32, [0 x i8], i8, [7 x i8] }
%"std::io::Error" = type { [0 x i64], %"std::io::error::Repr", [0 x i64] }
%"std::io::error::Repr" = type { [0 x i8], i8, [15 x i8] }
%"std::alloc::LayoutError" = type { [0 x i8], {}, [0 x i8] }
%"std::sys_common::os_str_bytes::Slice" = type { [0 x i8], [0 x i8] }
%"std::result::Result<std::string::String, std::io::Error>" = type { [0 x i64], i64, [3 x i64] }
%"std::path::Path" = type { [0 x i8], %"std::ffi::OsStr" }
%"std::ffi::OsStr" = type { [0 x i8], %"std::sys_common::os_str_bytes::Slice" }
%"core::fmt::Opaque" = type {}
%"std::fmt::Arguments" = type { [0 x i64], { [0 x { [0 x i8]*, i64 }]*, i64 }, [0 x i64], { i64*, i64 }, [0 x i64], { [0 x { i8*, i64* }]*, i64 }, [0 x i64] }
%"std::option::Option<usize>::Some" = type { [1 x i64], i64, [0 x i64] }
%"std::ptr::Repr<u8>" = type { [2 x i64] }
%A = type { [0 x i64], %BS, [0 x i64], i64, [0 x i64] }
%BS = type { [0 x i64], %"std::string::String", [0 x i64] }
%"std::string::String" = type { [0 x i64], %"std::vec::Vec<u8>", [0 x i64] }
%"std::vec::Vec<u8>" = type { [0 x i64], { i8*, i64 }, [0 x i64], i64, [0 x i64] }
%"std::ptr::Repr<A>" = type { [2 x i64] }
%"std::mem::MaybeUninit<std::ptr::swap_nonoverlapping_bytes::UnalignedBlock>" = type { [4 x i64] }
%"std::ptr::swap_nonoverlapping_bytes::UnalignedBlock" = type { [0 x i64], i64, [0 x i64], i64, [0 x i64], i64, [0 x i64], i64, [0 x i64] }
%"std::io::error::Repr::Custom" = type { [1 x i64], %"std::io::error::Custom"*, [0 x i64] }
%"std::io::error::Custom" = type { [0 x i64], { {}*, [3 x i64]* }, [0 x i8], i8, [7 x i8] }
%"std::vec::Vec<A>" = type { [0 x i64], { i64*, i64 }, [0 x i64], i64, [0 x i64] }
%"std::marker::PhantomData<A>" = type {}
%"std::marker::PhantomData<u8>" = type {}
%"std::option::Option<i32>::Some" = type { [1 x i32], i32, [0 x i32] }
%"std::panic::Location" = type { [0 x i64], { [0 x i8]*, i64 }, [0 x i32], i32, [0 x i32], i32, [0 x i32] }
%"std::result::Result<std::alloc::Layout, std::alloc::LayoutError>::Err" = type { [0 x i8], %"std::alloc::LayoutError", [0 x i8] }
%"std::result::Result<(std::alloc::Layout, usize), std::alloc::LayoutError>" = type { [1 x i64], i64, [1 x i64] }
%"std::result::Result<(std::alloc::Layout, usize), std::alloc::LayoutError>::Ok" = type { [0 x i64], { [0 x i64], { i64, i64 }, [0 x i64], i64, [0 x i64] }, [0 x i64] }
%"std::result::Result<usize, std::alloc::LayoutError>::Ok" = type { [1 x i64], i64, [0 x i64] }
%"std::result::Result<usize, std::collections::TryReserveError>" = type { [0 x i64], i64, [2 x i64] }
%"std::result::Result<usize, std::collections::TryReserveError>::Err" = type { [1 x i64], { i64, i64 }, [0 x i64] }
%"std::result::Result<usize, std::collections::TryReserveError>::Ok" = type { [1 x i64], i64, [0 x i64] }
%"std::alloc::AllocError" = type {}
%"std::result::Result<std::ptr::NonNull<u8>, std::alloc::AllocError>::Err" = type { [0 x i8], %"std::alloc::AllocError", [0 x i8] }
%"std::result::Result<usize, std::alloc::LayoutError>::Err" = type { [8 x i8], %"std::alloc::LayoutError", [0 x i8] }
%"std::result::Result<std::time::Duration, std::time::SystemTimeError>" = type { [0 x i64], i64, [2 x i64] }
%"std::result::Result<std::time::Duration, std::time::SystemTimeError>::Err" = type { [1 x i64], { i64, i32 }, [0 x i64] }
%"std::result::Result<std::time::Duration, std::time::SystemTimeError>::Ok" = type { [1 x i64], { i64, i32 }, [0 x i64] }
%"std::result::Result<std::string::String, std::io::Error>::Err" = type { [1 x i64], %"std::io::Error", [0 x i64] }
%"std::result::Result<std::string::String, std::io::Error>::Ok" = type { [1 x i64], %"std::string::String", [0 x i64] }
%"std::result::Result<std::ptr::NonNull<[u8]>, std::collections::TryReserveError>" = type { [0 x i64], i64, [2 x i64] }
%"std::result::Result<std::ptr::NonNull<[u8]>, std::collections::TryReserveError>::Ok" = type { [1 x i64], { i8*, i64 }, [0 x i64] }
%"std::result::Result<std::ptr::NonNull<[u8]>, std::collections::TryReserveError>::Err" = type { [1 x i64], { i64, i64 }, [0 x i64] }
%"std::result::Result<std::alloc::Layout, std::collections::TryReserveError>" = type { [0 x i64], i64, [2 x i64] }
%"[closure@alloc::raw_vec::finish_grow<std::alloc::Global>::{closure#0}]" = type {}
%"std::result::Result<std::alloc::Layout, std::collections::TryReserveError>::Ok" = type { [1 x i64], { i64, i64 }, [0 x i64] }
%"std::result::Result<std::alloc::Layout, std::collections::TryReserveError>::Err" = type { [1 x i64], { i64, i64 }, [0 x i64] }
%"std::alloc::Global" = type {}
%"std::result::Result<(), std::collections::TryReserveError>" = type { [0 x i64], i64, [2 x i64] }
%"std::result::Result<(), std::collections::TryReserveError>::Err" = type { [1 x i64], { i64, i64 }, [0 x i64] }
%"std::result::Result<(), std::collections::TryReserveError>::Ok" = type { [8 x i8], {}, [0 x i8] }
%"std::option::Option<(std::ptr::NonNull<u8>, std::alloc::Layout)>" = type { [0 x i64], {}*, [2 x i64] }
%"std::option::Option<(std::ptr::NonNull<u8>, std::alloc::Layout)>::Some" = type { [0 x i64], { [0 x i64], i8*, [0 x i64], { i64, i64 }, [0 x i64] }, [0 x i64] }
%"std::result::Result<(std::alloc::Layout, usize), std::alloc::LayoutError>::Err" = type { [0 x i8], %"std::alloc::LayoutError", [0 x i8] }
%"std::result::Result<std::ptr::NonNull<[u8]>, std::alloc::AllocError>::Err" = type { [0 x i8], %"std::alloc::AllocError", [0 x i8] }
%"unwind::libunwind::_Unwind_Exception" = type { [0 x i64], i64, [0 x i64], void (i32, %"unwind::libunwind::_Unwind_Exception"*)*, [0 x i64], [6 x i64], [0 x i64] }
%"unwind::libunwind::_Unwind_Context" = type { [0 x i8] }

@vtable.0 = private unnamed_addr constant { void (i64**)*, i64, i64, i32 (i64**)*, i32 (i64**)*, i32 (i64**)* } { void (i64**)* @"_ZN4core3ptr85drop_in_place$LT$std..rt..lang_start$LT$$LP$$RP$$GT$..$u7b$$u7b$closure$u7d$$u7d$$GT$17he8e65d4c2feafb07E", i64 8, i64 8, i32 (i64**)* @"_ZN3std2rt10lang_start28_$u7b$$u7b$closure$u7d$$u7d$17hfeef0170a1ee02c4E", i32 (i64**)* @"_ZN3std2rt10lang_start28_$u7b$$u7b$closure$u7d$$u7d$17hfeef0170a1ee02c4E", i32 (i64**)* @"_ZN4core3ops8function6FnOnce40call_once$u7b$$u7b$vtable.shim$u7d$$u7d$17hfe44064303efe754E" }, align 8, !dbg !0
@alloc79 = private unnamed_addr constant <{ [116 x i8] }> <{ [116 x i8] c"/Users/liuhanwen/.rustup/toolchains/stable-x86_64-apple-darwin/lib/rustlib/src/rust/library/core/src/alloc/layout.rs" }>, align 1
@alloc80 = private unnamed_addr constant <{ i8*, [16 x i8] }> <{ i8* getelementptr inbounds (<{ [116 x i8] }>, <{ [116 x i8] }>* @alloc79, i32 0, i32 0, i32 0), [16 x i8] c"t\00\00\00\00\00\00\00\11\01\00\009\00\00\00" }>, align 8
@alloc83 = private unnamed_addr constant <{ [43 x i8] }> <{ [43 x i8] c"called `Result::unwrap()` on an `Err` value" }>, align 1
@vtable.1 = private unnamed_addr constant { void ({ i64, i32 }*)*, i64, i64, i1 ({ i64, i32 }*, %"std::fmt::Formatter"*)* } { void ({ i64, i32 }*)* @"_ZN4core3ptr47drop_in_place$LT$std..time..SystemTimeError$GT$17h6f2d85fac4a191b6E", i64 16, i64 8, i1 ({ i64, i32 }*, %"std::fmt::Formatter"*)* @"_ZN63_$LT$std..time..SystemTimeError$u20$as$u20$core..fmt..Debug$GT$3fmt17hdd39b30617dc956aE" }, align 8, !dbg !14
@vtable.2 = private unnamed_addr constant { void (%"std::io::Error"*)*, i64, i64, i1 (%"std::io::Error"*, %"std::fmt::Formatter"*)* } { void (%"std::io::Error"*)* @"_ZN4core3ptr42drop_in_place$LT$std..io..error..Error$GT$17hf39af0eac76d8474E", i64 16, i64 8, i1 (%"std::io::Error"*, %"std::fmt::Formatter"*)* @"_ZN58_$LT$std..io..error..Error$u20$as$u20$core..fmt..Debug$GT$3fmt17hebec10d2a40f1980E" }, align 8, !dbg !29
@vtable.3 = private unnamed_addr constant { void (%"std::alloc::LayoutError"*)*, i64, i64, i1 (%"std::alloc::LayoutError"*, %"std::fmt::Formatter"*)* } { void (%"std::alloc::LayoutError"*)* @"_ZN4core3ptr53drop_in_place$LT$core..alloc..layout..LayoutError$GT$17hc219c2c1ab3434e0E", i64 0, i64 1, i1 (%"std::alloc::LayoutError"*, %"std::fmt::Formatter"*)* @"_ZN69_$LT$core..alloc..layout..LayoutError$u20$as$u20$core..fmt..Debug$GT$3fmt17hc0172e194d0ea5b9E" }, align 8, !dbg !102
@0 = private unnamed_addr constant <{ [16 x i8] }> <{ [16 x i8] c"\01\00\00\00\00\00\00\00\00\00\00\00\00\00\00\00" }>, align 8
@1 = private unnamed_addr constant <{ [16 x i8] }> <{ [16 x i8] c"\08\00\00\00\00\00\00\00\00\00\00\00\00\00\00\00" }>, align 8
@alloc84 = private unnamed_addr constant <{ [112 x i8] }> <{ [112 x i8] c"/Users/liuhanwen/.rustup/toolchains/stable-x86_64-apple-darwin/lib/rustlib/src/rust/library/alloc/src/raw_vec.rs" }>, align 1
@alloc85 = private unnamed_addr constant <{ i8*, [16 x i8] }> <{ i8* getelementptr inbounds (<{ [112 x i8] }>, <{ [112 x i8] }>* @alloc84, i32 0, i32 0, i32 0), [16 x i8] c"p\00\00\00\00\00\00\00\81\01\00\00\09\00\00\00" }>, align 8
@str.4 = internal constant [25 x i8] c"attempt to divide by zero"
@alloc86 = private unnamed_addr constant <{ [43 x i8] }> <{ [43 x i8] c"/Users/liuhanwen/gotest/http-test/test.json" }>, align 1
@alloc91 = private unnamed_addr constant <{ [11 x i8] }> <{ [11 x i8] c"src/main.rs" }>, align 1
@alloc88 = private unnamed_addr constant <{ i8*, [16 x i8] }> <{ i8* getelementptr inbounds (<{ [11 x i8] }>, <{ [11 x i8] }>* @alloc91, i32 0, i32 0, i32 0), [16 x i8] c"\0B\00\00\00\00\00\00\00\11\00\00\00V\00\00\00" }>, align 8
@alloc18 = private unnamed_addr constant <{ [0 x i8] }> zeroinitializer, align 1
@alloc20 = private unnamed_addr constant <{ [1 x i8] }> <{ [1 x i8] c"," }>, align 1
@alloc21 = private unnamed_addr constant <{ [1 x i8] }> <{ [1 x i8] c"\0A" }>, align 1
@alloc19 = private unnamed_addr constant <{ i8*, [8 x i8], i8*, [8 x i8], i8*, [8 x i8] }> <{ i8* getelementptr inbounds (<{ [0 x i8] }>, <{ [0 x i8] }>* @alloc18, i32 0, i32 0, i32 0), [8 x i8] zeroinitializer, i8* getelementptr inbounds (<{ [1 x i8] }>, <{ [1 x i8] }>* @alloc20, i32 0, i32 0, i32 0), [8 x i8] c"\01\00\00\00\00\00\00\00", i8* getelementptr inbounds (<{ [1 x i8] }>, <{ [1 x i8] }>* @alloc21, i32 0, i32 0, i32 0), [8 x i8] c"\01\00\00\00\00\00\00\00" }>, align 8
@alloc8 = private unnamed_addr constant <{ [18 x i8] }> <{ [18 x i8] c"\E5\8E\9F\E7\94\9F\E6\B6\88\E8\80\97\E7\94\A8\E6\97\B6" }>, align 1
@alloc9 = private unnamed_addr constant <{ i8*, [8 x i8] }> <{ i8* getelementptr inbounds (<{ [18 x i8] }>, <{ [18 x i8] }>* @alloc8, i32 0, i32 0, i32 0), [8 x i8] c"\12\00\00\00\00\00\00\00" }>, align 8
@alloc90 = private unnamed_addr constant <{ i8*, [16 x i8] }> <{ i8* getelementptr inbounds (<{ [11 x i8] }>, <{ [11 x i8] }>* @alloc91, i32 0, i32 0, i32 0), [16 x i8] c"\0B\00\00\00\00\00\00\00\1E\00\00\00\0E\00\00\00" }>, align 8
@alloc23 = private unnamed_addr constant <{ [18 x i8] }> <{ [18 x i8] c"setter\E6\B6\88\E8\80\97\E7\94\A8\E6\97\B6" }>, align 1
@alloc24 = private unnamed_addr constant <{ i8*, [8 x i8] }> <{ i8* getelementptr inbounds (<{ [18 x i8] }>, <{ [18 x i8] }>* @alloc23, i32 0, i32 0, i32 0), [8 x i8] c"\12\00\00\00\00\00\00\00" }>, align 8
@alloc92 = private unnamed_addr constant <{ i8*, [16 x i8] }> <{ i8* getelementptr inbounds (<{ [11 x i8] }>, <{ [11 x i8] }>* @alloc91, i32 0, i32 0, i32 0), [16 x i8] c"\0B\00\00\00\00\00\00\00/\00\00\00\0E\00\00\00" }>, align 8

; <core::ptr::non_null::NonNull<T> as core::convert::From<core::ptr::unique::Unique<T>>>::from
; Function Attrs: inlinehint uwtable
define internal nonnull i8* @"_ZN119_$LT$core..ptr..non_null..NonNull$LT$T$GT$$u20$as$u20$core..convert..From$LT$core..ptr..unique..Unique$LT$T$GT$$GT$$GT$4from17h60ee2857a112286bE"(i8* nonnull %unique) unnamed_addr #0 !dbg !140 {
start:
  %unique.dbg.spill = alloca i8*, align 8
  store i8* %unique, i8** %unique.dbg.spill, align 8
  call void @llvm.dbg.declare(metadata i8** %unique.dbg.spill, metadata !161, metadata !DIExpression()), !dbg !162
; call core::ptr::unique::Unique<T>::as_ptr
  %_2 = call i8* @"_ZN4core3ptr6unique15Unique$LT$T$GT$6as_ptr17h852246297f600699E"(i8* nonnull %unique), !dbg !163
  br label %bb1, !dbg !163

bb1:                                              ; preds = %start
; call core::ptr::non_null::NonNull<T>::new_unchecked
  %0 = call nonnull i8* @"_ZN4core3ptr8non_null16NonNull$LT$T$GT$13new_unchecked17h697f17f1b0ea219cE"(i8* %_2), !dbg !164
  br label %bb2, !dbg !164

bb2:                                              ; preds = %bb1
  ret i8* %0, !dbg !165
}

; std::sys_common::os_str_bytes::Slice::from_u8_slice
; Function Attrs: inlinehint uwtable
define internal { %"std::sys_common::os_str_bytes::Slice"*, i64 } @_ZN3std10sys_common12os_str_bytes5Slice13from_u8_slice17h96e5e8bb02f90a56E([0 x i8]* noalias nonnull readonly align 1 %s.0, i64 %s.1) unnamed_addr #0 !dbg !166 {
start:
  %0 = alloca { %"std::sys_common::os_str_bytes::Slice"*, i64 }, align 8
  %s.dbg.spill = alloca { [0 x i8]*, i64 }, align 8
  %1 = getelementptr inbounds { [0 x i8]*, i64 }, { [0 x i8]*, i64 }* %s.dbg.spill, i32 0, i32 0
  store [0 x i8]* %s.0, [0 x i8]** %1, align 8
  %2 = getelementptr inbounds { [0 x i8]*, i64 }, { [0 x i8]*, i64 }* %s.dbg.spill, i32 0, i32 1
  store i64 %s.1, i64* %2, align 8
  call void @llvm.dbg.declare(metadata { [0 x i8]*, i64 }* %s.dbg.spill, metadata !184, metadata !DIExpression()), !dbg !185
  %3 = bitcast { %"std::sys_common::os_str_bytes::Slice"*, i64 }* %0 to { [0 x i8]*, i64 }*, !dbg !186
  %4 = getelementptr inbounds { [0 x i8]*, i64 }, { [0 x i8]*, i64 }* %3, i32 0, i32 0, !dbg !186
  store [0 x i8]* %s.0, [0 x i8]** %4, align 8, !dbg !186
  %5 = getelementptr inbounds { [0 x i8]*, i64 }, { [0 x i8]*, i64 }* %3, i32 0, i32 1, !dbg !186
  store i64 %s.1, i64* %5, align 8, !dbg !186
  %6 = getelementptr inbounds { %"std::sys_common::os_str_bytes::Slice"*, i64 }, { %"std::sys_common::os_str_bytes::Slice"*, i64 }* %0, i32 0, i32 0, !dbg !186
  %7 = load %"std::sys_common::os_str_bytes::Slice"*, %"std::sys_common::os_str_bytes::Slice"** %6, align 8, !dbg !186, !nonnull !4
  %8 = getelementptr inbounds { %"std::sys_common::os_str_bytes::Slice"*, i64 }, { %"std::sys_common::os_str_bytes::Slice"*, i64 }* %0, i32 0, i32 1, !dbg !186
  %9 = load i64, i64* %8, align 8, !dbg !186
  br label %bb1, !dbg !186

bb1:                                              ; preds = %start
  %10 = insertvalue { %"std::sys_common::os_str_bytes::Slice"*, i64 } undef, %"std::sys_common::os_str_bytes::Slice"* %7, 0, !dbg !187
  %11 = insertvalue { %"std::sys_common::os_str_bytes::Slice"*, i64 } %10, i64 %9, 1, !dbg !187
  ret { %"std::sys_common::os_str_bytes::Slice"*, i64 } %11, !dbg !187
}

; std::sys_common::os_str_bytes::Slice::from_str
; Function Attrs: inlinehint uwtable
define internal { %"std::sys_common::os_str_bytes::Slice"*, i64 } @_ZN3std10sys_common12os_str_bytes5Slice8from_str17ha8bd8b96256ee399E([0 x i8]* noalias nonnull readonly align 1 %s.0, i64 %s.1) unnamed_addr #0 !dbg !188 {
start:
  %0 = alloca { [0 x i8]*, i64 }, align 8
  %self.dbg.spill.i = alloca { [0 x i8]*, i64 }, align 8
  %s.dbg.spill = alloca { [0 x i8]*, i64 }, align 8
  %1 = getelementptr inbounds { [0 x i8]*, i64 }, { [0 x i8]*, i64 }* %s.dbg.spill, i32 0, i32 0
  store [0 x i8]* %s.0, [0 x i8]** %1, align 8
  %2 = getelementptr inbounds { [0 x i8]*, i64 }, { [0 x i8]*, i64 }* %s.dbg.spill, i32 0, i32 1
  store i64 %s.1, i64* %2, align 8
  call void @llvm.dbg.declare(metadata { [0 x i8]*, i64 }* %s.dbg.spill, metadata !196, metadata !DIExpression()), !dbg !197
  %3 = getelementptr inbounds { [0 x i8]*, i64 }, { [0 x i8]*, i64 }* %self.dbg.spill.i, i32 0, i32 0
  store [0 x i8]* %s.0, [0 x i8]** %3, align 8, !noalias !198
  %4 = getelementptr inbounds { [0 x i8]*, i64 }, { [0 x i8]*, i64 }* %self.dbg.spill.i, i32 0, i32 1
  store i64 %s.1, i64* %4, align 8, !noalias !198
  call void @llvm.dbg.declare(metadata { [0 x i8]*, i64 }* %self.dbg.spill.i, metadata !201, metadata !DIExpression()), !dbg !209
  %5 = getelementptr inbounds { [0 x i8]*, i64 }, { [0 x i8]*, i64 }* %0, i32 0, i32 0, !dbg !211
  store [0 x i8]* %s.0, [0 x i8]** %5, align 8, !dbg !211, !noalias !198
  %6 = getelementptr inbounds { [0 x i8]*, i64 }, { [0 x i8]*, i64 }* %0, i32 0, i32 1, !dbg !211
  store i64 %s.1, i64* %6, align 8, !dbg !211, !noalias !198
  %7 = getelementptr inbounds { [0 x i8]*, i64 }, { [0 x i8]*, i64 }* %0, i32 0, i32 0, !dbg !211
  %8 = load [0 x i8]*, [0 x i8]** %7, align 8, !dbg !211, !noalias !198, !nonnull !4
  %9 = getelementptr inbounds { [0 x i8]*, i64 }, { [0 x i8]*, i64 }* %0, i32 0, i32 1, !dbg !211
  %10 = load i64, i64* %9, align 8, !dbg !211, !noalias !198
  %11 = insertvalue { [0 x i8]*, i64 } undef, [0 x i8]* %8, 0, !dbg !212
  %12 = insertvalue { [0 x i8]*, i64 } %11, i64 %10, 1, !dbg !212
  %_3.0 = extractvalue { [0 x i8]*, i64 } %12, 0, !dbg !213
  %_3.1 = extractvalue { [0 x i8]*, i64 } %12, 1, !dbg !213
  br label %bb1, !dbg !213

bb1:                                              ; preds = %start
; call std::sys_common::os_str_bytes::Slice::from_u8_slice
  %13 = call { %"std::sys_common::os_str_bytes::Slice"*, i64 } @_ZN3std10sys_common12os_str_bytes5Slice13from_u8_slice17h96e5e8bb02f90a56E([0 x i8]* noalias nonnull readonly align 1 %_3.0, i64 %_3.1), !dbg !214
  %14 = extractvalue { %"std::sys_common::os_str_bytes::Slice"*, i64 } %13, 0, !dbg !214
  %15 = extractvalue { %"std::sys_common::os_str_bytes::Slice"*, i64 } %13, 1, !dbg !214
  br label %bb2, !dbg !214

bb2:                                              ; preds = %bb1
  %16 = insertvalue { %"std::sys_common::os_str_bytes::Slice"*, i64 } undef, %"std::sys_common::os_str_bytes::Slice"* %14, 0, !dbg !215
  %17 = insertvalue { %"std::sys_common::os_str_bytes::Slice"*, i64 } %16, i64 %15, 1, !dbg !215
  ret { %"std::sys_common::os_str_bytes::Slice"*, i64 } %17, !dbg !215
}

; std::sys_common::backtrace::__rust_begin_short_backtrace
; Function Attrs: noinline uwtable
define internal void @_ZN3std10sys_common9backtrace28__rust_begin_short_backtrace17hf5eff6cf70195c8dE(void ()* nonnull %f) unnamed_addr #1 personality i32 (i32, i32, i64, %"unwind::libunwind::_Unwind_Exception"*, %"unwind::libunwind::_Unwind_Context"*)* @rust_eh_personality !dbg !216 {
start:
  %0 = alloca { i8*, i32 }, align 8
  %f.dbg.spill = alloca void ()*, align 8
  %result.dbg.spill = alloca {}, align 1
  %_5 = alloca {}, align 1
  %_3 = alloca {}, align 1
  call void @llvm.dbg.declare(metadata {}* %result.dbg.spill, metadata !223, metadata !DIExpression()), !dbg !228
  store void ()* %f, void ()** %f.dbg.spill, align 8
  call void @llvm.dbg.declare(metadata void ()** %f.dbg.spill, metadata !222, metadata !DIExpression()), !dbg !229
; call core::ops::function::FnOnce::call_once
  call void @_ZN4core3ops8function6FnOnce9call_once17hde9bf1e025605f9fE(void ()* nonnull %f), !dbg !230
  br label %bb1, !dbg !230

bb1:                                              ; preds = %start
; invoke core::hint::black_box
  invoke void @_ZN4core4hint9black_box17h3041d39afd0d95aaE()
          to label %bb2 unwind label %cleanup, !dbg !231

bb2:                                              ; preds = %bb1
  ret void, !dbg !232

bb3:                                              ; preds = %cleanup
  br label %bb4, !dbg !233

bb4:                                              ; preds = %bb3
  %1 = bitcast { i8*, i32 }* %0 to i8**, !dbg !234
  %2 = load i8*, i8** %1, align 8, !dbg !234
  %3 = getelementptr inbounds { i8*, i32 }, { i8*, i32 }* %0, i32 0, i32 1, !dbg !234
  %4 = load i32, i32* %3, align 8, !dbg !234
  %5 = insertvalue { i8*, i32 } undef, i8* %2, 0, !dbg !234
  %6 = insertvalue { i8*, i32 } %5, i32 %4, 1, !dbg !234
  resume { i8*, i32 } %6, !dbg !234

cleanup:                                          ; preds = %bb1
  %7 = landingpad { i8*, i32 }
          cleanup
  %8 = extractvalue { i8*, i32 } %7, 0
  %9 = extractvalue { i8*, i32 } %7, 1
  %10 = getelementptr inbounds { i8*, i32 }, { i8*, i32 }* %0, i32 0, i32 0
  store i8* %8, i8** %10, align 8
  %11 = getelementptr inbounds { i8*, i32 }, { i8*, i32 }* %0, i32 0, i32 1
  store i32 %9, i32* %11, align 8
  br label %bb3
}

; std::fs::read_to_string
; Function Attrs: uwtable
define internal void @_ZN3std2fs14read_to_string17h24e08d923bec9612E(%"std::result::Result<std::string::String, std::io::Error>"* noalias nocapture sret dereferenceable(32) %0, [0 x i8]* noalias nonnull readonly align 1 %1, i64 %2) unnamed_addr #2 personality i32 (i32, i32, i64, %"unwind::libunwind::_Unwind_Exception"*, %"unwind::libunwind::_Unwind_Context"*)* @rust_eh_personality !dbg !235 {
start:
  %3 = alloca { i8*, i32 }, align 8
  %path = alloca { [0 x i8]*, i64 }, align 8
  %4 = getelementptr inbounds { [0 x i8]*, i64 }, { [0 x i8]*, i64 }* %path, i32 0, i32 0
  store [0 x i8]* %1, [0 x i8]** %4, align 8
  %5 = getelementptr inbounds { [0 x i8]*, i64 }, { [0 x i8]*, i64 }* %path, i32 0, i32 1
  store i64 %2, i64* %5, align 8
  call void @llvm.dbg.declare(metadata { [0 x i8]*, i64 }* %path, metadata !273, metadata !DIExpression()), !dbg !276
; invoke <&T as core::convert::AsRef<U>>::as_ref
  %6 = invoke { %"std::path::Path"*, i64 } @"_ZN55_$LT$$RF$T$u20$as$u20$core..convert..AsRef$LT$U$GT$$GT$6as_ref17hb7f4295cae3387b2E"({ [0 x i8]*, i64 }* noalias readonly align 8 dereferenceable(16) %path)
          to label %bb1 unwind label %cleanup, !dbg !277

bb1:                                              ; preds = %start
  %_3.0 = extractvalue { %"std::path::Path"*, i64 } %6, 0, !dbg !277
  %_3.1 = extractvalue { %"std::path::Path"*, i64 } %6, 1, !dbg !277
; invoke std::fs::read_to_string::inner
  invoke void @_ZN3std2fs14read_to_string5inner17h80640e4cad11fec4E(%"std::result::Result<std::string::String, std::io::Error>"* noalias nocapture sret dereferenceable(32) %0, %"std::path::Path"* noalias nonnull readonly align 1 %_3.0, i64 %_3.1)
          to label %bb2 unwind label %cleanup, !dbg !278

bb2:                                              ; preds = %bb1
  br label %bb3, !dbg !279

bb3:                                              ; preds = %bb2
  ret void, !dbg !280

bb4:                                              ; preds = %cleanup
  br label %bb5, !dbg !279

bb5:                                              ; preds = %bb4
  %7 = bitcast { i8*, i32 }* %3 to i8**, !dbg !281
  %8 = load i8*, i8** %7, align 8, !dbg !281
  %9 = getelementptr inbounds { i8*, i32 }, { i8*, i32 }* %3, i32 0, i32 1, !dbg !281
  %10 = load i32, i32* %9, align 8, !dbg !281
  %11 = insertvalue { i8*, i32 } undef, i8* %8, 0, !dbg !281
  %12 = insertvalue { i8*, i32 } %11, i32 %10, 1, !dbg !281
  resume { i8*, i32 } %12, !dbg !281

cleanup:                                          ; preds = %bb1, %start
  %13 = landingpad { i8*, i32 }
          cleanup
  %14 = extractvalue { i8*, i32 } %13, 0
  %15 = extractvalue { i8*, i32 } %13, 1
  %16 = getelementptr inbounds { i8*, i32 }, { i8*, i32 }* %3, i32 0, i32 0
  store i8* %14, i8** %16, align 8
  %17 = getelementptr inbounds { i8*, i32 }, { i8*, i32 }* %3, i32 0, i32 1
  store i32 %15, i32* %17, align 8
  br label %bb4
}

; std::rt::lang_start
; Function Attrs: uwtable
define hidden i64 @_ZN3std2rt10lang_start17haf256f5c752fa98aE(void ()* nonnull %main, i64 %argc, i8** %argv) unnamed_addr #2 !dbg !282 {
start:
  %argv.dbg.spill = alloca i8**, align 8
  %argc.dbg.spill = alloca i64, align 8
  %main.dbg.spill = alloca void ()*, align 8
  %_7 = alloca i64*, align 8
  store void ()* %main, void ()** %main.dbg.spill, align 8
  call void @llvm.dbg.declare(metadata void ()** %main.dbg.spill, metadata !289, metadata !DIExpression()), !dbg !293
  store i64 %argc, i64* %argc.dbg.spill, align 8
  call void @llvm.dbg.declare(metadata i64* %argc.dbg.spill, metadata !290, metadata !DIExpression()), !dbg !294
  store i8** %argv, i8*** %argv.dbg.spill, align 8
  call void @llvm.dbg.declare(metadata i8*** %argv.dbg.spill, metadata !291, metadata !DIExpression()), !dbg !295
  %0 = bitcast i64** %_7 to void ()**, !dbg !296
  store void ()* %main, void ()** %0, align 8, !dbg !296
  %_4.0 = bitcast i64** %_7 to {}*, !dbg !297
; call std::rt::lang_start_internal
  %1 = call i64 @_ZN3std2rt19lang_start_internal17h86f505dc7de50d93E({}* nonnull align 1 %_4.0, [3 x i64]* noalias readonly align 8 dereferenceable(24) bitcast ({ void (i64**)*, i64, i64, i32 (i64**)*, i32 (i64**)*, i32 (i64**)* }* @vtable.0 to [3 x i64]*), i64 %argc, i8** %argv), !dbg !298
  br label %bb1, !dbg !298

bb1:                                              ; preds = %start
  ret i64 %1, !dbg !299
}

; std::rt::lang_start::{{closure}}
; Function Attrs: inlinehint uwtable
define internal i32 @"_ZN3std2rt10lang_start28_$u7b$$u7b$closure$u7d$$u7d$17hfeef0170a1ee02c4E"(i64** noalias readonly align 8 dereferenceable(8) %_1) unnamed_addr #0 !dbg !300 {
start:
  %_1.dbg.spill = alloca i64**, align 8
  store i64** %_1, i64*** %_1.dbg.spill, align 8
  call void @llvm.dbg.declare(metadata i64*** %_1.dbg.spill, metadata !305, metadata !DIExpression(DW_OP_deref)), !dbg !306
  %0 = bitcast i64** %_1 to void ()**, !dbg !307
  %_3 = load void ()*, void ()** %0, align 8, !dbg !307, !nonnull !4
; call std::sys_common::backtrace::__rust_begin_short_backtrace
  call void @_ZN3std10sys_common9backtrace28__rust_begin_short_backtrace17hf5eff6cf70195c8dE(void ()* nonnull %_3), !dbg !308
  br label %bb1, !dbg !308

bb1:                                              ; preds = %start
; call <() as std::process::Termination>::report
  %1 = call i32 @"_ZN54_$LT$$LP$$RP$$u20$as$u20$std..process..Termination$GT$6report17h9c5aa91c47cc087eE"(), !dbg !308
  br label %bb2, !dbg !308

bb2:                                              ; preds = %bb1
  ret i32 %1, !dbg !309
}

; std::ffi::os_str::OsStr::from_inner
; Function Attrs: inlinehint uwtable
define internal { %"std::ffi::OsStr"*, i64 } @_ZN3std3ffi6os_str5OsStr10from_inner17h1060716ec919f79dE(%"std::sys_common::os_str_bytes::Slice"* noalias nonnull readonly align 1 %inner.0, i64 %inner.1) unnamed_addr #0 !dbg !310 {
start:
  %inner.dbg.spill = alloca { %"std::sys_common::os_str_bytes::Slice"*, i64 }, align 8
  %0 = getelementptr inbounds { %"std::sys_common::os_str_bytes::Slice"*, i64 }, { %"std::sys_common::os_str_bytes::Slice"*, i64 }* %inner.dbg.spill, i32 0, i32 0
  store %"std::sys_common::os_str_bytes::Slice"* %inner.0, %"std::sys_common::os_str_bytes::Slice"** %0, align 8
  %1 = getelementptr inbounds { %"std::sys_common::os_str_bytes::Slice"*, i64 }, { %"std::sys_common::os_str_bytes::Slice"*, i64 }* %inner.dbg.spill, i32 0, i32 1
  store i64 %inner.1, i64* %1, align 8
  call void @llvm.dbg.declare(metadata { %"std::sys_common::os_str_bytes::Slice"*, i64 }* %inner.dbg.spill, metadata !321, metadata !DIExpression()), !dbg !322
  %_2.0 = bitcast %"std::sys_common::os_str_bytes::Slice"* %inner.0 to %"std::ffi::OsStr"*, !dbg !323
  %2 = insertvalue { %"std::ffi::OsStr"*, i64 } undef, %"std::ffi::OsStr"* %_2.0, 0, !dbg !324
  %3 = insertvalue { %"std::ffi::OsStr"*, i64 } %2, i64 %inner.1, 1, !dbg !324
  ret { %"std::ffi::OsStr"*, i64 } %3, !dbg !324
}

; std::ffi::os_str::<impl core::convert::AsRef<std::ffi::os_str::OsStr> for str>::as_ref
; Function Attrs: inlinehint uwtable
define internal { %"std::ffi::OsStr"*, i64 } @"_ZN3std3ffi6os_str85_$LT$impl$u20$core..convert..AsRef$LT$std..ffi..os_str..OsStr$GT$$u20$for$u20$str$GT$6as_ref17h3b7309595ae606a9E"([0 x i8]* noalias nonnull readonly align 1 %self.0, i64 %self.1) unnamed_addr #0 !dbg !325 {
start:
  %self.dbg.spill = alloca { [0 x i8]*, i64 }, align 8
  %0 = getelementptr inbounds { [0 x i8]*, i64 }, { [0 x i8]*, i64 }* %self.dbg.spill, i32 0, i32 0
  store [0 x i8]* %self.0, [0 x i8]** %0, align 8
  %1 = getelementptr inbounds { [0 x i8]*, i64 }, { [0 x i8]*, i64 }* %self.dbg.spill, i32 0, i32 1
  store i64 %self.1, i64* %1, align 8
  call void @llvm.dbg.declare(metadata { [0 x i8]*, i64 }* %self.dbg.spill, metadata !330, metadata !DIExpression()), !dbg !331
; call std::sys_common::os_str_bytes::Slice::from_str
  %2 = call { %"std::sys_common::os_str_bytes::Slice"*, i64 } @_ZN3std10sys_common12os_str_bytes5Slice8from_str17ha8bd8b96256ee399E([0 x i8]* noalias nonnull readonly align 1 %self.0, i64 %self.1), !dbg !332
  %_3.0 = extractvalue { %"std::sys_common::os_str_bytes::Slice"*, i64 } %2, 0, !dbg !332
  %_3.1 = extractvalue { %"std::sys_common::os_str_bytes::Slice"*, i64 } %2, 1, !dbg !332
  br label %bb1, !dbg !332

bb1:                                              ; preds = %start
; call std::ffi::os_str::OsStr::from_inner
  %3 = call { %"std::ffi::OsStr"*, i64 } @_ZN3std3ffi6os_str5OsStr10from_inner17h1060716ec919f79dE(%"std::sys_common::os_str_bytes::Slice"* noalias nonnull readonly align 1 %_3.0, i64 %_3.1), !dbg !333
  %4 = extractvalue { %"std::ffi::OsStr"*, i64 } %3, 0, !dbg !333
  %5 = extractvalue { %"std::ffi::OsStr"*, i64 } %3, 1, !dbg !333
  br label %bb2, !dbg !333

bb2:                                              ; preds = %bb1
  %6 = insertvalue { %"std::ffi::OsStr"*, i64 } undef, %"std::ffi::OsStr"* %4, 0, !dbg !334
  %7 = insertvalue { %"std::ffi::OsStr"*, i64 } %6, i64 %5, 1, !dbg !334
  ret { %"std::ffi::OsStr"*, i64 } %7, !dbg !334
}

; std::sys::unix::process::process_common::ExitCode::as_i32
; Function Attrs: inlinehint uwtable
define internal i32 @_ZN3std3sys4unix7process14process_common8ExitCode6as_i3217h6c22f7c662c6ba78E(i8* noalias readonly align 1 dereferenceable(1) %self) unnamed_addr #0 !dbg !335 {
start:
  %self.dbg.spill = alloca i8*, align 8
  store i8* %self, i8** %self.dbg.spill, align 8
  call void @llvm.dbg.declare(metadata i8** %self.dbg.spill, metadata !348, metadata !DIExpression()), !dbg !349
  %_2 = load i8, i8* %self, align 1, !dbg !350
  %0 = zext i8 %_2 to i32, !dbg !350
  ret i32 %0, !dbg !351
}

; std::path::Path::new
; Function Attrs: uwtable
define internal { %"std::path::Path"*, i64 } @_ZN3std4path4Path3new17haef29e76b64f5d24E([0 x i8]* noalias nonnull readonly align 1 %s.0, i64 %s.1) unnamed_addr #2 !dbg !352 {
start:
  %s.dbg.spill = alloca { [0 x i8]*, i64 }, align 8
  %0 = getelementptr inbounds { [0 x i8]*, i64 }, { [0 x i8]*, i64 }* %s.dbg.spill, i32 0, i32 0
  store [0 x i8]* %s.0, [0 x i8]** %0, align 8
  %1 = getelementptr inbounds { [0 x i8]*, i64 }, { [0 x i8]*, i64 }* %s.dbg.spill, i32 0, i32 1
  store i64 %s.1, i64* %1, align 8
  call void @llvm.dbg.declare(metadata { [0 x i8]*, i64 }* %s.dbg.spill, metadata !362, metadata !DIExpression()), !dbg !366
; call std::ffi::os_str::<impl core::convert::AsRef<std::ffi::os_str::OsStr> for str>::as_ref
  %2 = call { %"std::ffi::OsStr"*, i64 } @"_ZN3std3ffi6os_str85_$LT$impl$u20$core..convert..AsRef$LT$std..ffi..os_str..OsStr$GT$$u20$for$u20$str$GT$6as_ref17h3b7309595ae606a9E"([0 x i8]* noalias nonnull readonly align 1 %s.0, i64 %s.1), !dbg !367
  %_4.0 = extractvalue { %"std::ffi::OsStr"*, i64 } %2, 0, !dbg !367
  %_4.1 = extractvalue { %"std::ffi::OsStr"*, i64 } %2, 1, !dbg !367
  br label %bb1, !dbg !367

bb1:                                              ; preds = %start
  %_2.0 = bitcast %"std::ffi::OsStr"* %_4.0 to %"std::path::Path"*, !dbg !368
  %3 = insertvalue { %"std::path::Path"*, i64 } undef, %"std::path::Path"* %_2.0, 0, !dbg !369
  %4 = insertvalue { %"std::path::Path"*, i64 } %3, i64 %_4.1, 1, !dbg !369
  ret { %"std::path::Path"*, i64 } %4, !dbg !369
}

; std::path::<impl core::convert::AsRef<std::path::Path> for str>::as_ref
; Function Attrs: inlinehint uwtable
define internal { %"std::path::Path"*, i64 } @"_ZN3std4path77_$LT$impl$u20$core..convert..AsRef$LT$std..path..Path$GT$$u20$for$u20$str$GT$6as_ref17h0ec203b87849bbf6E"([0 x i8]* noalias nonnull readonly align 1 %self.0, i64 %self.1) unnamed_addr #0 !dbg !370 {
start:
  %self.dbg.spill = alloca { [0 x i8]*, i64 }, align 8
  %0 = getelementptr inbounds { [0 x i8]*, i64 }, { [0 x i8]*, i64 }* %self.dbg.spill, i32 0, i32 0
  store [0 x i8]* %self.0, [0 x i8]** %0, align 8
  %1 = getelementptr inbounds { [0 x i8]*, i64 }, { [0 x i8]*, i64 }* %self.dbg.spill, i32 0, i32 1
  store i64 %self.1, i64* %1, align 8
  call void @llvm.dbg.declare(metadata { [0 x i8]*, i64 }* %self.dbg.spill, metadata !373, metadata !DIExpression()), !dbg !374
; call std::path::Path::new
  %2 = call { %"std::path::Path"*, i64 } @_ZN3std4path4Path3new17haef29e76b64f5d24E([0 x i8]* noalias nonnull readonly align 1 %self.0, i64 %self.1), !dbg !375
  %3 = extractvalue { %"std::path::Path"*, i64 } %2, 0, !dbg !375
  %4 = extractvalue { %"std::path::Path"*, i64 } %2, 1, !dbg !375
  br label %bb1, !dbg !375

bb1:                                              ; preds = %start
  %5 = insertvalue { %"std::path::Path"*, i64 } undef, %"std::path::Path"* %3, 0, !dbg !376
  %6 = insertvalue { %"std::path::Path"*, i64 } %5, i64 %4, 1, !dbg !376
  ret { %"std::path::Path"*, i64 } %6, !dbg !376
}

; <&T as core::fmt::Display>::fmt
; Function Attrs: uwtable
define internal zeroext i1 @"_ZN44_$LT$$RF$T$u20$as$u20$core..fmt..Display$GT$3fmt17hcfac50c3b7ba6d59E"({ [0 x i8]*, i64 }* noalias readonly align 8 dereferenceable(16) %self, %"std::fmt::Formatter"* align 8 dereferenceable(64) %f) unnamed_addr #2 !dbg !377 {
start:
  %f.dbg.spill = alloca %"std::fmt::Formatter"*, align 8
  %self.dbg.spill = alloca { [0 x i8]*, i64 }*, align 8
  store { [0 x i8]*, i64 }* %self, { [0 x i8]*, i64 }** %self.dbg.spill, align 8
  call void @llvm.dbg.declare(metadata { [0 x i8]*, i64 }** %self.dbg.spill, metadata !412, metadata !DIExpression()), !dbg !416
  store %"std::fmt::Formatter"* %f, %"std::fmt::Formatter"** %f.dbg.spill, align 8
  call void @llvm.dbg.declare(metadata %"std::fmt::Formatter"** %f.dbg.spill, metadata !413, metadata !DIExpression()), !dbg !417
  %0 = getelementptr inbounds { [0 x i8]*, i64 }, { [0 x i8]*, i64 }* %self, i32 0, i32 0, !dbg !418
  %_4.0 = load [0 x i8]*, [0 x i8]** %0, align 8, !dbg !418, !nonnull !4
  %1 = getelementptr inbounds { [0 x i8]*, i64 }, { [0 x i8]*, i64 }* %self, i32 0, i32 1, !dbg !418
  %_4.1 = load i64, i64* %1, align 8, !dbg !418
; call <str as core::fmt::Display>::fmt
  %2 = call zeroext i1 @"_ZN42_$LT$str$u20$as$u20$core..fmt..Display$GT$3fmt17h466c071cb7153a81E"([0 x i8]* noalias nonnull readonly align 1 %_4.0, i64 %_4.1, %"std::fmt::Formatter"* align 8 dereferenceable(64) %f), !dbg !419
  br label %bb1, !dbg !419

bb1:                                              ; preds = %start
  ret i1 %2, !dbg !420
}

; <i64 as core::default::Default>::default
; Function Attrs: inlinehint uwtable
define internal i64 @"_ZN46_$LT$i64$u20$as$u20$core..default..Default$GT$7default17h171899c4d9cc0f52E"() unnamed_addr #0 !dbg !421 {
start:
  ret i64 0, !dbg !428
}

; <i32 as core::iter::range::Step>::forward_unchecked
; Function Attrs: inlinehint uwtable
define internal i32 @"_ZN47_$LT$i32$u20$as$u20$core..iter..range..Step$GT$17forward_unchecked17h428b5703cd4c6748E"(i32 %start1, i64 %n) unnamed_addr #0 !dbg !429 {
start:
  %n.dbg.spill = alloca i64, align 8
  %start.dbg.spill = alloca i32, align 4
  store i32 %start1, i32* %start.dbg.spill, align 4
  call void @llvm.dbg.declare(metadata i32* %start.dbg.spill, metadata !437, metadata !DIExpression()), !dbg !439
  store i64 %n, i64* %n.dbg.spill, align 8
  call void @llvm.dbg.declare(metadata i64* %n.dbg.spill, metadata !438, metadata !DIExpression()), !dbg !440
  %_4 = trunc i64 %n to i32, !dbg !441
; call core::num::<impl i32>::unchecked_add
  %0 = call i32 @"_ZN4core3num21_$LT$impl$u20$i32$GT$13unchecked_add17hff6256801fac234dE"(i32 %start1, i32 %_4), !dbg !442
  br label %bb1, !dbg !442

bb1:                                              ; preds = %start
  ret i32 %0, !dbg !443
}

; core::intrinsics::write_bytes
; Function Attrs: inlinehint uwtable
define internal void @_ZN4core10intrinsics11write_bytes17h2ca61eb1d3d86b13E(i8* %dst, i8 %val, i64 %count) unnamed_addr #0 !dbg !444 {
start:
  %count.dbg.spill = alloca i64, align 8
  %val.dbg.spill = alloca i8, align 1
  %dst.dbg.spill = alloca i8*, align 8
  store i8* %dst, i8** %dst.dbg.spill, align 8
  call void @llvm.dbg.declare(metadata i8** %dst.dbg.spill, metadata !450, metadata !DIExpression()), !dbg !453
  store i8 %val, i8* %val.dbg.spill, align 1
  call void @llvm.dbg.declare(metadata i8* %val.dbg.spill, metadata !451, metadata !DIExpression()), !dbg !454
  store i64 %count, i64* %count.dbg.spill, align 8
  call void @llvm.dbg.declare(metadata i64* %count.dbg.spill, metadata !452, metadata !DIExpression()), !dbg !455
  %0 = mul i64 1, %count, !dbg !456
  call void @llvm.memset.p0i8.i64(i8* align 1 %dst, i8 %val, i64 %0, i1 false), !dbg !456
  br label %bb1, !dbg !456

bb1:                                              ; preds = %start
  ret void, !dbg !457
}

; core::intrinsics::copy_nonoverlapping
; Function Attrs: inlinehint uwtable
define internal void @_ZN4core10intrinsics19copy_nonoverlapping17hed1b488914f537b3E(i32* %src, i32* %dst, i64 %count) unnamed_addr #0 !dbg !458 {
start:
  %count.dbg.spill = alloca i64, align 8
  %dst.dbg.spill = alloca i32*, align 8
  %src.dbg.spill = alloca i32*, align 8
  store i32* %src, i32** %src.dbg.spill, align 8
  call void @llvm.dbg.declare(metadata i32** %src.dbg.spill, metadata !464, metadata !DIExpression()), !dbg !469
  store i32* %dst, i32** %dst.dbg.spill, align 8
  call void @llvm.dbg.declare(metadata i32** %dst.dbg.spill, metadata !465, metadata !DIExpression()), !dbg !470
  store i64 %count, i64* %count.dbg.spill, align 8
  call void @llvm.dbg.declare(metadata i64* %count.dbg.spill, metadata !466, metadata !DIExpression()), !dbg !471
  %0 = mul i64 4, %count, !dbg !472
  %1 = bitcast i32* %dst to i8*, !dbg !472
  %2 = bitcast i32* %src to i8*, !dbg !472
  call void @llvm.memcpy.p0i8.p0i8.i64(i8* align 4 %1, i8* align 4 %2, i64 %0, i1 false), !dbg !472
  br label %bb1, !dbg !472

bb1:                                              ; preds = %start
  ret void, !dbg !473
}

; core::intrinsics::copy_nonoverlapping
; Function Attrs: inlinehint uwtable
define internal void @_ZN4core10intrinsics19copy_nonoverlapping17hef57dd4865cd0340E(i8* %src, i8* %dst, i64 %count) unnamed_addr #0 !dbg !474 {
start:
  %count.dbg.spill = alloca i64, align 8
  %dst.dbg.spill = alloca i8*, align 8
  %src.dbg.spill = alloca i8*, align 8
  store i8* %src, i8** %src.dbg.spill, align 8
  call void @llvm.dbg.declare(metadata i8** %src.dbg.spill, metadata !478, metadata !DIExpression()), !dbg !481
  store i8* %dst, i8** %dst.dbg.spill, align 8
  call void @llvm.dbg.declare(metadata i8** %dst.dbg.spill, metadata !479, metadata !DIExpression()), !dbg !482
  store i64 %count, i64* %count.dbg.spill, align 8
  call void @llvm.dbg.declare(metadata i64* %count.dbg.spill, metadata !480, metadata !DIExpression()), !dbg !483
  %0 = mul i64 1, %count, !dbg !484
  call void @llvm.memcpy.p0i8.p0i8.i64(i8* align 1 %dst, i8* align 1 %src, i64 %0, i1 false), !dbg !484
  br label %bb1, !dbg !484

bb1:                                              ; preds = %start
  ret void, !dbg !485
}

; core::cmp::Ord::max
; Function Attrs: inlinehint uwtable
define internal i64 @_ZN4core3cmp3Ord3max17h060efcf871a104abE(i64 %self, i64 %other) unnamed_addr #0 !dbg !486 {
start:
  %other.dbg.spill = alloca i64, align 8
  %self.dbg.spill = alloca i64, align 8
  store i64 %self, i64* %self.dbg.spill, align 8
  call void @llvm.dbg.declare(metadata i64* %self.dbg.spill, metadata !492, metadata !DIExpression()), !dbg !496
  store i64 %other, i64* %other.dbg.spill, align 8
  call void @llvm.dbg.declare(metadata i64* %other.dbg.spill, metadata !493, metadata !DIExpression()), !dbg !497
; call core::cmp::max_by
  %0 = call i64 @_ZN4core3cmp6max_by17h4a952cf0142b8820E(i64 %self, i64 %other), !dbg !498
  br label %bb1, !dbg !498

bb1:                                              ; preds = %start
  ret i64 %0, !dbg !499
}

; core::cmp::max
; Function Attrs: inlinehint uwtable
define internal i64 @_ZN4core3cmp3max17hed8952b02b951580E(i64 %v1, i64 %v2) unnamed_addr #0 !dbg !500 {
start:
  %v2.dbg.spill = alloca i64, align 8
  %v1.dbg.spill = alloca i64, align 8
  store i64 %v1, i64* %v1.dbg.spill, align 8
  call void @llvm.dbg.declare(metadata i64* %v1.dbg.spill, metadata !502, metadata !DIExpression()), !dbg !504
  store i64 %v2, i64* %v2.dbg.spill, align 8
  call void @llvm.dbg.declare(metadata i64* %v2.dbg.spill, metadata !503, metadata !DIExpression()), !dbg !505
; call core::cmp::Ord::max
  %0 = call i64 @_ZN4core3cmp3Ord3max17h060efcf871a104abE(i64 %v1, i64 %v2), !dbg !506
  br label %bb1, !dbg !506

bb1:                                              ; preds = %start
  ret i64 %0, !dbg !507
}

; core::cmp::impls::<impl core::cmp::Ord for usize>::cmp
; Function Attrs: inlinehint uwtable
define internal i8 @"_ZN4core3cmp5impls50_$LT$impl$u20$core..cmp..Ord$u20$for$u20$usize$GT$3cmp17hf62e5446fc97cf93E"(i64* noalias readonly align 8 dereferenceable(8) %self, i64* noalias readonly align 8 dereferenceable(8) %other) unnamed_addr #0 !dbg !508 {
start:
  %other.dbg.spill = alloca i64*, align 8
  %self.dbg.spill = alloca i64*, align 8
  %0 = alloca i8, align 1
  store i64* %self, i64** %self.dbg.spill, align 8
  call void @llvm.dbg.declare(metadata i64** %self.dbg.spill, metadata !515, metadata !DIExpression()), !dbg !517
  store i64* %other, i64** %other.dbg.spill, align 8
  call void @llvm.dbg.declare(metadata i64** %other.dbg.spill, metadata !516, metadata !DIExpression()), !dbg !518
  %_4 = load i64, i64* %self, align 8, !dbg !519
  %_5 = load i64, i64* %other, align 8, !dbg !520
  %_3 = icmp ult i64 %_4, %_5, !dbg !519
  br i1 %_3, label %bb1, label %bb2, !dbg !521

bb1:                                              ; preds = %start
  store i8 -1, i8* %0, align 1, !dbg !522
  br label %bb6, !dbg !521

bb2:                                              ; preds = %start
  %_7 = load i64, i64* %self, align 8, !dbg !523
  %_8 = load i64, i64* %other, align 8, !dbg !524
  %_6 = icmp eq i64 %_7, %_8, !dbg !523
  br i1 %_6, label %bb3, label %bb4, !dbg !525

bb3:                                              ; preds = %bb2
  store i8 0, i8* %0, align 1, !dbg !526
  br label %bb5, !dbg !525

bb4:                                              ; preds = %bb2
  store i8 1, i8* %0, align 1, !dbg !527
  br label %bb5, !dbg !525

bb5:                                              ; preds = %bb4, %bb3
  br label %bb6, !dbg !521

bb6:                                              ; preds = %bb5, %bb1
  %1 = load i8, i8* %0, align 1, !dbg !528, !range !529
  ret i8 %1, !dbg !528
}

; core::cmp::impls::<impl core::cmp::PartialOrd for i32>::lt
; Function Attrs: inlinehint uwtable
define internal zeroext i1 @"_ZN4core3cmp5impls55_$LT$impl$u20$core..cmp..PartialOrd$u20$for$u20$i32$GT$2lt17hbbbd80cdf1b1f993E"(i32* noalias readonly align 4 dereferenceable(4) %self, i32* noalias readonly align 4 dereferenceable(4) %other) unnamed_addr #0 !dbg !530 {
start:
  %other.dbg.spill = alloca i32*, align 8
  %self.dbg.spill = alloca i32*, align 8
  store i32* %self, i32** %self.dbg.spill, align 8
  call void @llvm.dbg.declare(metadata i32** %self.dbg.spill, metadata !536, metadata !DIExpression()), !dbg !538
  store i32* %other, i32** %other.dbg.spill, align 8
  call void @llvm.dbg.declare(metadata i32** %other.dbg.spill, metadata !537, metadata !DIExpression()), !dbg !539
  %_3 = load i32, i32* %self, align 4, !dbg !540
  %_4 = load i32, i32* %other, align 4, !dbg !541
  %0 = icmp slt i32 %_3, %_4, !dbg !540
  ret i1 %0, !dbg !542
}

; core::cmp::max_by
; Function Attrs: inlinehint uwtable
define internal i64 @_ZN4core3cmp6max_by17h4a952cf0142b8820E(i64 %0, i64 %1) unnamed_addr #0 personality i32 (i32, i32, i64, %"unwind::libunwind::_Unwind_Exception"*, %"unwind::libunwind::_Unwind_Context"*)* @rust_eh_personality !dbg !543 {
start:
  %2 = alloca { i8*, i32 }, align 8
  %compare.dbg.spill = alloca {}, align 1
  %_13 = alloca i8, align 1
  %_12 = alloca i8, align 1
  %_6 = alloca { i64*, i64* }, align 8
  %_4 = alloca i8, align 1
  %3 = alloca i64, align 8
  %v2 = alloca i64, align 8
  %v1 = alloca i64, align 8
  store i64 %0, i64* %v1, align 8
  store i64 %1, i64* %v2, align 8
  call void @llvm.dbg.declare(metadata i64* %v1, metadata !548, metadata !DIExpression()), !dbg !553
  call void @llvm.dbg.declare(metadata i64* %v2, metadata !549, metadata !DIExpression()), !dbg !554
  call void @llvm.dbg.declare(metadata {}* %compare.dbg.spill, metadata !550, metadata !DIExpression()), !dbg !555
  store i8 0, i8* %_13, align 1, !dbg !556
  store i8 0, i8* %_12, align 1, !dbg !556
  store i8 1, i8* %_13, align 1, !dbg !556
  store i8 1, i8* %_12, align 1, !dbg !556
  %4 = bitcast { i64*, i64* }* %_6 to i64**, !dbg !556
  store i64* %v1, i64** %4, align 8, !dbg !556
  %5 = getelementptr inbounds { i64*, i64* }, { i64*, i64* }* %_6, i32 0, i32 1, !dbg !556
  store i64* %v2, i64** %5, align 8, !dbg !556
  %6 = getelementptr inbounds { i64*, i64* }, { i64*, i64* }* %_6, i32 0, i32 0, !dbg !556
  %7 = load i64*, i64** %6, align 8, !dbg !556, !nonnull !4
  %8 = getelementptr inbounds { i64*, i64* }, { i64*, i64* }* %_6, i32 0, i32 1, !dbg !556
  %9 = load i64*, i64** %8, align 8, !dbg !556, !nonnull !4
; invoke core::ops::function::FnOnce::call_once
  %10 = invoke i8 @_ZN4core3ops8function6FnOnce9call_once17hc17bfcfdcb9c1090E(i64* noalias readonly align 8 dereferenceable(8) %7, i64* noalias readonly align 8 dereferenceable(8) %9)
          to label %bb1 unwind label %cleanup, !dbg !556, !range !529

bb1:                                              ; preds = %start
  store i8 %10, i8* %_4, align 1, !dbg !556
  %11 = load i8, i8* %_4, align 1, !dbg !557, !range !529
  %_11 = sext i8 %11 to i64, !dbg !557
  switch i64 %_11, label %bb3 [
    i64 -1, label %bb4
    i64 0, label %bb4
    i64 1, label %bb2
  ], !dbg !557

bb2:                                              ; preds = %bb1
  store i8 0, i8* %_13, align 1, !dbg !558
  %12 = load i64, i64* %v1, align 8, !dbg !558
  store i64 %12, i64* %3, align 8, !dbg !558
  br label %bb5, !dbg !559

bb3:                                              ; preds = %bb1
  unreachable, !dbg !556

bb4:                                              ; preds = %bb1, %bb1
  store i8 0, i8* %_12, align 1, !dbg !560
  %13 = load i64, i64* %v2, align 8, !dbg !560
  store i64 %13, i64* %3, align 8, !dbg !560
  br label %bb5, !dbg !559

bb5:                                              ; preds = %bb4, %bb2
  %14 = load i8, i8* %_12, align 1, !dbg !561, !range !562
  %15 = trunc i8 %14 to i1, !dbg !561
  br i1 %15, label %bb10, label %bb6, !dbg !561

bb6:                                              ; preds = %bb10, %bb5
  %16 = load i8, i8* %_13, align 1, !dbg !561, !range !562
  %17 = trunc i8 %16 to i1, !dbg !561
  br i1 %17, label %bb11, label %bb7, !dbg !561

bb7:                                              ; preds = %bb11, %bb6
  %18 = load i64, i64* %3, align 8, !dbg !563
  ret i64 %18, !dbg !563

bb8:                                              ; preds = %cleanup
  br label %bb13, !dbg !561

bb9:                                              ; preds = %bb12, %bb13
  %19 = bitcast { i8*, i32 }* %2 to i8**, !dbg !564
  %20 = load i8*, i8** %19, align 8, !dbg !564
  %21 = getelementptr inbounds { i8*, i32 }, { i8*, i32 }* %2, i32 0, i32 1, !dbg !564
  %22 = load i32, i32* %21, align 8, !dbg !564
  %23 = insertvalue { i8*, i32 } undef, i8* %20, 0, !dbg !564
  %24 = insertvalue { i8*, i32 } %23, i32 %22, 1, !dbg !564
  resume { i8*, i32 } %24, !dbg !564

bb10:                                             ; preds = %bb5
  br label %bb6, !dbg !561

bb11:                                             ; preds = %bb6
  br label %bb7, !dbg !561

bb12:                                             ; preds = %bb13
  br label %bb9, !dbg !561

bb13:                                             ; preds = %bb8
  %25 = load i8, i8* %_13, align 1, !dbg !561, !range !562
  %26 = trunc i8 %25 to i1, !dbg !561
  br i1 %26, label %bb12, label %bb9, !dbg !561

cleanup:                                          ; preds = %start
  %27 = landingpad { i8*, i32 }
          cleanup
  %28 = extractvalue { i8*, i32 } %27, 0
  %29 = extractvalue { i8*, i32 } %27, 1
  %30 = getelementptr inbounds { i8*, i32 }, { i8*, i32 }* %2, i32 0, i32 0
  store i8* %28, i8** %30, align 8
  %31 = getelementptr inbounds { i8*, i32 }, { i8*, i32 }* %2, i32 0, i32 1
  store i32 %29, i32* %31, align 8
  br label %bb8
}

; core::fmt::ArgumentV1::new
; Function Attrs: uwtable
define internal { i8*, i64* } @_ZN4core3fmt10ArgumentV13new17hcb4bd7aade4fe767E(i128* noalias readonly align 8 dereferenceable(16) %x, i1 (i128*, %"std::fmt::Formatter"*)* nonnull %f) unnamed_addr #2 !dbg !565 {
start:
  %0 = alloca %"core::fmt::Opaque"*, align 8
  %1 = alloca i1 (%"core::fmt::Opaque"*, %"std::fmt::Formatter"*)*, align 8
  %f.dbg.spill = alloca i1 (i128*, %"std::fmt::Formatter"*)*, align 8
  %x.dbg.spill = alloca i128*, align 8
  %2 = alloca { i8*, i64* }, align 8
  store i128* %x, i128** %x.dbg.spill, align 8
  call void @llvm.dbg.declare(metadata i128** %x.dbg.spill, metadata !583, metadata !DIExpression()), !dbg !587
  store i1 (i128*, %"std::fmt::Formatter"*)* %f, i1 (i128*, %"std::fmt::Formatter"*)** %f.dbg.spill, align 8
  call void @llvm.dbg.declare(metadata i1 (i128*, %"std::fmt::Formatter"*)** %f.dbg.spill, metadata !584, metadata !DIExpression()), !dbg !588
  %3 = bitcast i1 (i128*, %"std::fmt::Formatter"*)* %f to i1 (%"core::fmt::Opaque"*, %"std::fmt::Formatter"*)*, !dbg !589
  store i1 (%"core::fmt::Opaque"*, %"std::fmt::Formatter"*)* %3, i1 (%"core::fmt::Opaque"*, %"std::fmt::Formatter"*)** %1, align 8, !dbg !589
  %_3 = load i1 (%"core::fmt::Opaque"*, %"std::fmt::Formatter"*)*, i1 (%"core::fmt::Opaque"*, %"std::fmt::Formatter"*)** %1, align 8, !dbg !589, !nonnull !4
  br label %bb1, !dbg !589

bb1:                                              ; preds = %start
  %4 = bitcast i128* %x to %"core::fmt::Opaque"*, !dbg !590
  store %"core::fmt::Opaque"* %4, %"core::fmt::Opaque"** %0, align 8, !dbg !590
  %_5 = load %"core::fmt::Opaque"*, %"core::fmt::Opaque"** %0, align 8, !dbg !590, !nonnull !4
  br label %bb2, !dbg !590

bb2:                                              ; preds = %bb1
  %5 = bitcast { i8*, i64* }* %2 to %"core::fmt::Opaque"**, !dbg !591
  store %"core::fmt::Opaque"* %_5, %"core::fmt::Opaque"** %5, align 8, !dbg !591
  %6 = getelementptr inbounds { i8*, i64* }, { i8*, i64* }* %2, i32 0, i32 1, !dbg !591
  %7 = bitcast i64** %6 to i1 (%"core::fmt::Opaque"*, %"std::fmt::Formatter"*)**, !dbg !591
  store i1 (%"core::fmt::Opaque"*, %"std::fmt::Formatter"*)* %_3, i1 (%"core::fmt::Opaque"*, %"std::fmt::Formatter"*)** %7, align 8, !dbg !591
  %8 = getelementptr inbounds { i8*, i64* }, { i8*, i64* }* %2, i32 0, i32 0, !dbg !592
  %9 = load i8*, i8** %8, align 8, !dbg !592, !nonnull !4
  %10 = getelementptr inbounds { i8*, i64* }, { i8*, i64* }* %2, i32 0, i32 1, !dbg !592
  %11 = load i64*, i64** %10, align 8, !dbg !592, !nonnull !4
  %12 = insertvalue { i8*, i64* } undef, i8* %9, 0, !dbg !592
  %13 = insertvalue { i8*, i64* } %12, i64* %11, 1, !dbg !592
  ret { i8*, i64* } %13, !dbg !592
}

; core::fmt::ArgumentV1::new
; Function Attrs: uwtable
define internal { i8*, i64* } @_ZN4core3fmt10ArgumentV13new17hf4fdc5e05aae7d3dE({ [0 x i8]*, i64 }* noalias readonly align 8 dereferenceable(16) %x, i1 ({ [0 x i8]*, i64 }*, %"std::fmt::Formatter"*)* nonnull %f) unnamed_addr #2 !dbg !593 {
start:
  %0 = alloca %"core::fmt::Opaque"*, align 8
  %1 = alloca i1 (%"core::fmt::Opaque"*, %"std::fmt::Formatter"*)*, align 8
  %f.dbg.spill = alloca i1 ({ [0 x i8]*, i64 }*, %"std::fmt::Formatter"*)*, align 8
  %x.dbg.spill = alloca { [0 x i8]*, i64 }*, align 8
  %2 = alloca { i8*, i64* }, align 8
  store { [0 x i8]*, i64 }* %x, { [0 x i8]*, i64 }** %x.dbg.spill, align 8
  call void @llvm.dbg.declare(metadata { [0 x i8]*, i64 }** %x.dbg.spill, metadata !598, metadata !DIExpression()), !dbg !602
  store i1 ({ [0 x i8]*, i64 }*, %"std::fmt::Formatter"*)* %f, i1 ({ [0 x i8]*, i64 }*, %"std::fmt::Formatter"*)** %f.dbg.spill, align 8
  call void @llvm.dbg.declare(metadata i1 ({ [0 x i8]*, i64 }*, %"std::fmt::Formatter"*)** %f.dbg.spill, metadata !599, metadata !DIExpression()), !dbg !603
  %3 = bitcast i1 ({ [0 x i8]*, i64 }*, %"std::fmt::Formatter"*)* %f to i1 (%"core::fmt::Opaque"*, %"std::fmt::Formatter"*)*, !dbg !604
  store i1 (%"core::fmt::Opaque"*, %"std::fmt::Formatter"*)* %3, i1 (%"core::fmt::Opaque"*, %"std::fmt::Formatter"*)** %1, align 8, !dbg !604
  %_3 = load i1 (%"core::fmt::Opaque"*, %"std::fmt::Formatter"*)*, i1 (%"core::fmt::Opaque"*, %"std::fmt::Formatter"*)** %1, align 8, !dbg !604, !nonnull !4
  br label %bb1, !dbg !604

bb1:                                              ; preds = %start
  %4 = bitcast { [0 x i8]*, i64 }* %x to %"core::fmt::Opaque"*, !dbg !605
  store %"core::fmt::Opaque"* %4, %"core::fmt::Opaque"** %0, align 8, !dbg !605
  %_5 = load %"core::fmt::Opaque"*, %"core::fmt::Opaque"** %0, align 8, !dbg !605, !nonnull !4
  br label %bb2, !dbg !605

bb2:                                              ; preds = %bb1
  %5 = bitcast { i8*, i64* }* %2 to %"core::fmt::Opaque"**, !dbg !606
  store %"core::fmt::Opaque"* %_5, %"core::fmt::Opaque"** %5, align 8, !dbg !606
  %6 = getelementptr inbounds { i8*, i64* }, { i8*, i64* }* %2, i32 0, i32 1, !dbg !606
  %7 = bitcast i64** %6 to i1 (%"core::fmt::Opaque"*, %"std::fmt::Formatter"*)**, !dbg !606
  store i1 (%"core::fmt::Opaque"*, %"std::fmt::Formatter"*)* %_3, i1 (%"core::fmt::Opaque"*, %"std::fmt::Formatter"*)** %7, align 8, !dbg !606
  %8 = getelementptr inbounds { i8*, i64* }, { i8*, i64* }* %2, i32 0, i32 0, !dbg !607
  %9 = load i8*, i8** %8, align 8, !dbg !607, !nonnull !4
  %10 = getelementptr inbounds { i8*, i64* }, { i8*, i64* }* %2, i32 0, i32 1, !dbg !607
  %11 = load i64*, i64** %10, align 8, !dbg !607, !nonnull !4
  %12 = insertvalue { i8*, i64* } undef, i8* %9, 0, !dbg !607
  %13 = insertvalue { i8*, i64* } %12, i64* %11, 1, !dbg !607
  ret { i8*, i64* } %13, !dbg !607
}

; core::fmt::Arguments::new_v1
; Function Attrs: inlinehint uwtable
define internal void @_ZN4core3fmt9Arguments6new_v117heff21dc7d723c468E(%"std::fmt::Arguments"* noalias nocapture sret dereferenceable(48) %0, [0 x { [0 x i8]*, i64 }]* noalias nonnull readonly align 8 %pieces.0, i64 %pieces.1, [0 x { i8*, i64* }]* noalias nonnull readonly align 8 %args.0, i64 %args.1) unnamed_addr #0 !dbg !608 {
start:
  %args.dbg.spill = alloca { [0 x { i8*, i64* }]*, i64 }, align 8
  %pieces.dbg.spill = alloca { [0 x { [0 x i8]*, i64 }]*, i64 }, align 8
  %_4 = alloca { i64*, i64 }, align 8
  %1 = getelementptr inbounds { [0 x { [0 x i8]*, i64 }]*, i64 }, { [0 x { [0 x i8]*, i64 }]*, i64 }* %pieces.dbg.spill, i32 0, i32 0
  store [0 x { [0 x i8]*, i64 }]* %pieces.0, [0 x { [0 x i8]*, i64 }]** %1, align 8
  %2 = getelementptr inbounds { [0 x { [0 x i8]*, i64 }]*, i64 }, { [0 x { [0 x i8]*, i64 }]*, i64 }* %pieces.dbg.spill, i32 0, i32 1
  store i64 %pieces.1, i64* %2, align 8
  call void @llvm.dbg.declare(metadata { [0 x { [0 x i8]*, i64 }]*, i64 }* %pieces.dbg.spill, metadata !670, metadata !DIExpression()), !dbg !672
  %3 = getelementptr inbounds { [0 x { i8*, i64* }]*, i64 }, { [0 x { i8*, i64* }]*, i64 }* %args.dbg.spill, i32 0, i32 0
  store [0 x { i8*, i64* }]* %args.0, [0 x { i8*, i64* }]** %3, align 8
  %4 = getelementptr inbounds { [0 x { i8*, i64* }]*, i64 }, { [0 x { i8*, i64* }]*, i64 }* %args.dbg.spill, i32 0, i32 1
  store i64 %args.1, i64* %4, align 8
  call void @llvm.dbg.declare(metadata { [0 x { i8*, i64* }]*, i64 }* %args.dbg.spill, metadata !671, metadata !DIExpression()), !dbg !673
  %5 = bitcast { i64*, i64 }* %_4 to {}**, !dbg !674
  store {}* null, {}** %5, align 8, !dbg !674
  %6 = bitcast %"std::fmt::Arguments"* %0 to { [0 x { [0 x i8]*, i64 }]*, i64 }*, !dbg !675
  %7 = getelementptr inbounds { [0 x { [0 x i8]*, i64 }]*, i64 }, { [0 x { [0 x i8]*, i64 }]*, i64 }* %6, i32 0, i32 0, !dbg !675
  store [0 x { [0 x i8]*, i64 }]* %pieces.0, [0 x { [0 x i8]*, i64 }]** %7, align 8, !dbg !675
  %8 = getelementptr inbounds { [0 x { [0 x i8]*, i64 }]*, i64 }, { [0 x { [0 x i8]*, i64 }]*, i64 }* %6, i32 0, i32 1, !dbg !675
  store i64 %pieces.1, i64* %8, align 8, !dbg !675
  %9 = getelementptr inbounds %"std::fmt::Arguments", %"std::fmt::Arguments"* %0, i32 0, i32 3, !dbg !675
  %10 = getelementptr inbounds { i64*, i64 }, { i64*, i64 }* %_4, i32 0, i32 0, !dbg !675
  %11 = load i64*, i64** %10, align 8, !dbg !675
  %12 = getelementptr inbounds { i64*, i64 }, { i64*, i64 }* %_4, i32 0, i32 1, !dbg !675
  %13 = load i64, i64* %12, align 8, !dbg !675
  %14 = getelementptr inbounds { i64*, i64 }, { i64*, i64 }* %9, i32 0, i32 0, !dbg !675
  store i64* %11, i64** %14, align 8, !dbg !675
  %15 = getelementptr inbounds { i64*, i64 }, { i64*, i64 }* %9, i32 0, i32 1, !dbg !675
  store i64 %13, i64* %15, align 8, !dbg !675
  %16 = getelementptr inbounds %"std::fmt::Arguments", %"std::fmt::Arguments"* %0, i32 0, i32 5, !dbg !675
  %17 = getelementptr inbounds { [0 x { i8*, i64* }]*, i64 }, { [0 x { i8*, i64* }]*, i64 }* %16, i32 0, i32 0, !dbg !675
  store [0 x { i8*, i64* }]* %args.0, [0 x { i8*, i64* }]** %17, align 8, !dbg !675
  %18 = getelementptr inbounds { [0 x { i8*, i64* }]*, i64 }, { [0 x { i8*, i64* }]*, i64 }* %16, i32 0, i32 1, !dbg !675
  store i64 %args.1, i64* %18, align 8, !dbg !675
  ret void, !dbg !676
}

; core::mem::swap
; Function Attrs: inlinehint uwtable
define internal void @_ZN4core3mem4swap17h468b0bc02d40cfcaE(i32* align 4 dereferenceable(4) %x, i32* align 4 dereferenceable(4) %y) unnamed_addr #0 !dbg !677 {
start:
  %y.dbg.spill = alloca i32*, align 8
  %x.dbg.spill = alloca i32*, align 8
  store i32* %x, i32** %x.dbg.spill, align 8
  call void @llvm.dbg.declare(metadata i32** %x.dbg.spill, metadata !684, metadata !DIExpression()), !dbg !686
  store i32* %y, i32** %y.dbg.spill, align 8
  call void @llvm.dbg.declare(metadata i32** %y.dbg.spill, metadata !685, metadata !DIExpression()), !dbg !687
; call core::ptr::swap_nonoverlapping_one
  call void @_ZN4core3ptr23swap_nonoverlapping_one17h17e674463ef70044E(i32* %x, i32* %y), !dbg !688
  br label %bb1, !dbg !688

bb1:                                              ; preds = %start
  ret void, !dbg !689
}

; core::mem::replace
; Function Attrs: inlinehint uwtable
define internal i32 @_ZN4core3mem7replace17h75d998f1f35f5880E(i32* align 4 dereferenceable(4) %dest, i32 %0) unnamed_addr #0 personality i32 (i32, i32, i64, %"unwind::libunwind::_Unwind_Exception"*, %"unwind::libunwind::_Unwind_Context"*)* @rust_eh_personality !dbg !690 {
start:
  %1 = alloca { i8*, i32 }, align 8
  %dest.dbg.spill = alloca i32*, align 8
  %src = alloca i32, align 4
  store i32 %0, i32* %src, align 4
  store i32* %dest, i32** %dest.dbg.spill, align 8
  call void @llvm.dbg.declare(metadata i32** %dest.dbg.spill, metadata !694, metadata !DIExpression()), !dbg !696
  call void @llvm.dbg.declare(metadata i32* %src, metadata !695, metadata !DIExpression()), !dbg !697
; invoke core::mem::swap
  invoke void @_ZN4core3mem4swap17h468b0bc02d40cfcaE(i32* align 4 dereferenceable(4) %dest, i32* align 4 dereferenceable(4) %src)
          to label %bb1 unwind label %cleanup, !dbg !698

bb1:                                              ; preds = %start
  %2 = load i32, i32* %src, align 4, !dbg !699
  ret i32 %2, !dbg !700

bb2:                                              ; preds = %cleanup
  br label %bb3, !dbg !701

bb3:                                              ; preds = %bb2
  %3 = bitcast { i8*, i32 }* %1 to i8**, !dbg !702
  %4 = load i8*, i8** %3, align 8, !dbg !702
  %5 = getelementptr inbounds { i8*, i32 }, { i8*, i32 }* %1, i32 0, i32 1, !dbg !702
  %6 = load i32, i32* %5, align 8, !dbg !702
  %7 = insertvalue { i8*, i32 } undef, i8* %4, 0, !dbg !702
  %8 = insertvalue { i8*, i32 } %7, i32 %6, 1, !dbg !702
  resume { i8*, i32 } %8, !dbg !702

cleanup:                                          ; preds = %start
  %9 = landingpad { i8*, i32 }
          cleanup
  %10 = extractvalue { i8*, i32 } %9, 0
  %11 = extractvalue { i8*, i32 } %9, 1
  %12 = getelementptr inbounds { i8*, i32 }, { i8*, i32 }* %1, i32 0, i32 0
  store i8* %10, i8** %12, align 8
  %13 = getelementptr inbounds { i8*, i32 }, { i8*, i32 }* %1, i32 0, i32 1
  store i32 %11, i32* %13, align 8
  br label %bb2
}

; core::num::<impl i32>::unchecked_add
; Function Attrs: inlinehint uwtable
define internal i32 @"_ZN4core3num21_$LT$impl$u20$i32$GT$13unchecked_add17hff6256801fac234dE"(i32 %self, i32 %rhs) unnamed_addr #0 !dbg !703 {
start:
  %0 = alloca i32, align 4
  %rhs.dbg.spill = alloca i32, align 4
  %self.dbg.spill = alloca i32, align 4
  store i32 %self, i32* %self.dbg.spill, align 4
  call void @llvm.dbg.declare(metadata i32* %self.dbg.spill, metadata !710, metadata !DIExpression()), !dbg !712
  store i32 %rhs, i32* %rhs.dbg.spill, align 4
  call void @llvm.dbg.declare(metadata i32* %rhs.dbg.spill, metadata !711, metadata !DIExpression()), !dbg !713
  %1 = add nsw i32 %self, %rhs, !dbg !714
  store i32 %1, i32* %0, align 4, !dbg !714
  %2 = load i32, i32* %0, align 4, !dbg !714
  br label %bb1, !dbg !714

bb1:                                              ; preds = %start
  ret i32 %2, !dbg !715
}

; core::num::<impl usize>::count_ones
; Function Attrs: inlinehint uwtable
define internal i32 @"_ZN4core3num23_$LT$impl$u20$usize$GT$10count_ones17h709ee2fdcf9d88f4E"(i64 %self) unnamed_addr #0 !dbg !716 {
start:
  %0 = alloca i64, align 8
  %self.dbg.spill = alloca i64, align 8
  store i64 %self, i64* %self.dbg.spill, align 8
  call void @llvm.dbg.declare(metadata i64* %self.dbg.spill, metadata !721, metadata !DIExpression()), !dbg !722
  %1 = call i64 @llvm.ctpop.i64(i64 %self), !dbg !723
  store i64 %1, i64* %0, align 8, !dbg !723
  %_2 = load i64, i64* %0, align 8, !dbg !723
  br label %bb1, !dbg !723

bb1:                                              ; preds = %start
  %2 = trunc i64 %_2 to i32, !dbg !723
  ret i32 %2, !dbg !724
}

; core::num::<impl usize>::checked_add
; Function Attrs: inlinehint uwtable
define internal { i64, i64 } @"_ZN4core3num23_$LT$impl$u20$usize$GT$11checked_add17h7d2bf8caf5cb5444E"(i64 %self, i64 %rhs) unnamed_addr #0 !dbg !725 {
start:
  %0 = alloca i8, align 1
  %b.dbg.spill = alloca i8, align 1
  %a.dbg.spill = alloca i64, align 8
  %rhs.dbg.spill = alloca i64, align 8
  %self.dbg.spill = alloca i64, align 8
  %1 = alloca { i64, i64 }, align 8
  store i64 %self, i64* %self.dbg.spill, align 8
  call void @llvm.dbg.declare(metadata i64* %self.dbg.spill, metadata !729, metadata !DIExpression()), !dbg !734
  store i64 %rhs, i64* %rhs.dbg.spill, align 8
  call void @llvm.dbg.declare(metadata i64* %rhs.dbg.spill, metadata !730, metadata !DIExpression()), !dbg !735
; call core::num::<impl usize>::overflowing_add
  %2 = call { i64, i8 } @"_ZN4core3num23_$LT$impl$u20$usize$GT$15overflowing_add17h121963ccd424f8a7E"(i64 %self, i64 %rhs), !dbg !736
  %_5.0 = extractvalue { i64, i8 } %2, 0, !dbg !736
  %3 = extractvalue { i64, i8 } %2, 1, !dbg !736
  %_5.1 = trunc i8 %3 to i1, !dbg !736
  br label %bb1, !dbg !736

bb1:                                              ; preds = %start
  store i64 %_5.0, i64* %a.dbg.spill, align 8, !dbg !737
  call void @llvm.dbg.declare(metadata i64* %a.dbg.spill, metadata !731, metadata !DIExpression()), !dbg !738
  %4 = zext i1 %_5.1 to i8, !dbg !739
  store i8 %4, i8* %b.dbg.spill, align 1, !dbg !739
  call void @llvm.dbg.declare(metadata i8* %b.dbg.spill, metadata !733, metadata !DIExpression()), !dbg !740
  %5 = call i1 @llvm.expect.i1(i1 %_5.1, i1 false), !dbg !741
  %6 = zext i1 %5 to i8, !dbg !741
  store i8 %6, i8* %0, align 1, !dbg !741
  %7 = load i8, i8* %0, align 1, !dbg !741, !range !562
  %_8 = trunc i8 %7 to i1, !dbg !741
  br label %bb2, !dbg !741

bb2:                                              ; preds = %bb1
  br i1 %_8, label %bb3, label %bb4, !dbg !742

bb3:                                              ; preds = %bb2
  %8 = bitcast { i64, i64 }* %1 to i64*, !dbg !743
  store i64 0, i64* %8, align 8, !dbg !743
  br label %bb5, !dbg !742

bb4:                                              ; preds = %bb2
  %9 = bitcast { i64, i64 }* %1 to %"std::option::Option<usize>::Some"*, !dbg !744
  %10 = getelementptr inbounds %"std::option::Option<usize>::Some", %"std::option::Option<usize>::Some"* %9, i32 0, i32 1, !dbg !744
  store i64 %_5.0, i64* %10, align 8, !dbg !744
  %11 = bitcast { i64, i64 }* %1 to i64*, !dbg !744
  store i64 1, i64* %11, align 8, !dbg !744
  br label %bb5, !dbg !742

bb5:                                              ; preds = %bb4, %bb3
  %12 = getelementptr inbounds { i64, i64 }, { i64, i64 }* %1, i32 0, i32 0, !dbg !745
  %13 = load i64, i64* %12, align 8, !dbg !745, !range !746
  %14 = getelementptr inbounds { i64, i64 }, { i64, i64 }* %1, i32 0, i32 1, !dbg !745
  %15 = load i64, i64* %14, align 8, !dbg !745
  %16 = insertvalue { i64, i64 } undef, i64 %13, 0, !dbg !745
  %17 = insertvalue { i64, i64 } %16, i64 %15, 1, !dbg !745
  ret { i64, i64 } %17, !dbg !745
}

; core::num::<impl usize>::checked_mul
; Function Attrs: inlinehint uwtable
define internal { i64, i64 } @"_ZN4core3num23_$LT$impl$u20$usize$GT$11checked_mul17h13983a11b3168fe2E"(i64 %self, i64 %rhs) unnamed_addr #0 !dbg !747 {
start:
  %0 = alloca i8, align 1
  %b.dbg.spill = alloca i8, align 1
  %a.dbg.spill = alloca i64, align 8
  %rhs.dbg.spill = alloca i64, align 8
  %self.dbg.spill = alloca i64, align 8
  %1 = alloca { i64, i64 }, align 8
  store i64 %self, i64* %self.dbg.spill, align 8
  call void @llvm.dbg.declare(metadata i64* %self.dbg.spill, metadata !749, metadata !DIExpression()), !dbg !754
  store i64 %rhs, i64* %rhs.dbg.spill, align 8
  call void @llvm.dbg.declare(metadata i64* %rhs.dbg.spill, metadata !750, metadata !DIExpression()), !dbg !755
; call core::num::<impl usize>::overflowing_mul
  %2 = call { i64, i8 } @"_ZN4core3num23_$LT$impl$u20$usize$GT$15overflowing_mul17h20a079e5861f22b5E"(i64 %self, i64 %rhs), !dbg !756
  %_5.0 = extractvalue { i64, i8 } %2, 0, !dbg !756
  %3 = extractvalue { i64, i8 } %2, 1, !dbg !756
  %_5.1 = trunc i8 %3 to i1, !dbg !756
  br label %bb1, !dbg !756

bb1:                                              ; preds = %start
  store i64 %_5.0, i64* %a.dbg.spill, align 8, !dbg !757
  call void @llvm.dbg.declare(metadata i64* %a.dbg.spill, metadata !751, metadata !DIExpression()), !dbg !758
  %4 = zext i1 %_5.1 to i8, !dbg !759
  store i8 %4, i8* %b.dbg.spill, align 1, !dbg !759
  call void @llvm.dbg.declare(metadata i8* %b.dbg.spill, metadata !753, metadata !DIExpression()), !dbg !760
  %5 = call i1 @llvm.expect.i1(i1 %_5.1, i1 false), !dbg !761
  %6 = zext i1 %5 to i8, !dbg !761
  store i8 %6, i8* %0, align 1, !dbg !761
  %7 = load i8, i8* %0, align 1, !dbg !761, !range !562
  %_8 = trunc i8 %7 to i1, !dbg !761
  br label %bb2, !dbg !761

bb2:                                              ; preds = %bb1
  br i1 %_8, label %bb3, label %bb4, !dbg !762

bb3:                                              ; preds = %bb2
  %8 = bitcast { i64, i64 }* %1 to i64*, !dbg !763
  store i64 0, i64* %8, align 8, !dbg !763
  br label %bb5, !dbg !762

bb4:                                              ; preds = %bb2
  %9 = bitcast { i64, i64 }* %1 to %"std::option::Option<usize>::Some"*, !dbg !764
  %10 = getelementptr inbounds %"std::option::Option<usize>::Some", %"std::option::Option<usize>::Some"* %9, i32 0, i32 1, !dbg !764
  store i64 %_5.0, i64* %10, align 8, !dbg !764
  %11 = bitcast { i64, i64 }* %1 to i64*, !dbg !764
  store i64 1, i64* %11, align 8, !dbg !764
  br label %bb5, !dbg !762

bb5:                                              ; preds = %bb4, %bb3
  %12 = getelementptr inbounds { i64, i64 }, { i64, i64 }* %1, i32 0, i32 0, !dbg !765
  %13 = load i64, i64* %12, align 8, !dbg !765, !range !746
  %14 = getelementptr inbounds { i64, i64 }, { i64, i64 }* %1, i32 0, i32 1, !dbg !765
  %15 = load i64, i64* %14, align 8, !dbg !765
  %16 = insertvalue { i64, i64 } undef, i64 %13, 0, !dbg !765
  %17 = insertvalue { i64, i64 } %16, i64 %15, 1, !dbg !765
  ret { i64, i64 } %17, !dbg !765
}

; core::num::<impl usize>::wrapping_add
; Function Attrs: inlinehint uwtable
define internal i64 @"_ZN4core3num23_$LT$impl$u20$usize$GT$12wrapping_add17haf92afe4e00c69f6E"(i64 %self, i64 %rhs) unnamed_addr #0 !dbg !766 {
start:
  %rhs.dbg.spill = alloca i64, align 8
  %self.dbg.spill = alloca i64, align 8
  store i64 %self, i64* %self.dbg.spill, align 8
  call void @llvm.dbg.declare(metadata i64* %self.dbg.spill, metadata !768, metadata !DIExpression()), !dbg !770
  store i64 %rhs, i64* %rhs.dbg.spill, align 8
  call void @llvm.dbg.declare(metadata i64* %rhs.dbg.spill, metadata !769, metadata !DIExpression()), !dbg !771
  %0 = add i64 %self, %rhs, !dbg !772
  ret i64 %0, !dbg !773
}

; core::num::<impl usize>::wrapping_sub
; Function Attrs: inlinehint uwtable
define internal i64 @"_ZN4core3num23_$LT$impl$u20$usize$GT$12wrapping_sub17h1a5820c462b33e36E"(i64 %self, i64 %rhs) unnamed_addr #0 !dbg !774 {
start:
  %rhs.dbg.spill = alloca i64, align 8
  %self.dbg.spill = alloca i64, align 8
  store i64 %self, i64* %self.dbg.spill, align 8
  call void @llvm.dbg.declare(metadata i64* %self.dbg.spill, metadata !776, metadata !DIExpression()), !dbg !778
  store i64 %rhs, i64* %rhs.dbg.spill, align 8
  call void @llvm.dbg.declare(metadata i64* %rhs.dbg.spill, metadata !777, metadata !DIExpression()), !dbg !779
  %0 = sub i64 %self, %rhs, !dbg !780
  ret i64 %0, !dbg !781
}

; core::num::<impl usize>::is_power_of_two
; Function Attrs: inlinehint uwtable
define internal zeroext i1 @"_ZN4core3num23_$LT$impl$u20$usize$GT$15is_power_of_two17ha5e2e607fd873534E"(i64 %self) unnamed_addr #0 !dbg !782 {
start:
  %self.dbg.spill = alloca i64, align 8
  store i64 %self, i64* %self.dbg.spill, align 8
  call void @llvm.dbg.declare(metadata i64* %self.dbg.spill, metadata !786, metadata !DIExpression()), !dbg !787
; call core::num::<impl usize>::count_ones
  %_2 = call i32 @"_ZN4core3num23_$LT$impl$u20$usize$GT$10count_ones17h709ee2fdcf9d88f4E"(i64 %self), !dbg !788
  br label %bb1, !dbg !788

bb1:                                              ; preds = %start
  %0 = icmp eq i32 %_2, 1, !dbg !788
  ret i1 %0, !dbg !789
}

; core::num::<impl usize>::overflowing_add
; Function Attrs: inlinehint uwtable
define internal { i64, i8 } @"_ZN4core3num23_$LT$impl$u20$usize$GT$15overflowing_add17h121963ccd424f8a7E"(i64 %self, i64 %rhs) unnamed_addr #0 !dbg !790 {
start:
  %b.dbg.spill = alloca i8, align 1
  %a.dbg.spill = alloca i64, align 8
  %0 = alloca { i64, i8 }, align 8
  %rhs.dbg.spill = alloca i64, align 8
  %self.dbg.spill = alloca i64, align 8
  %1 = alloca { i64, i8 }, align 8
  store i64 %self, i64* %self.dbg.spill, align 8
  call void @llvm.dbg.declare(metadata i64* %self.dbg.spill, metadata !798, metadata !DIExpression()), !dbg !803
  store i64 %rhs, i64* %rhs.dbg.spill, align 8
  call void @llvm.dbg.declare(metadata i64* %rhs.dbg.spill, metadata !799, metadata !DIExpression()), !dbg !804
  %2 = call { i64, i1 } @llvm.uadd.with.overflow.i64(i64 %self, i64 %rhs), !dbg !805
  %3 = extractvalue { i64, i1 } %2, 0, !dbg !805
  %4 = extractvalue { i64, i1 } %2, 1, !dbg !805
  %5 = zext i1 %4 to i8, !dbg !805
  %6 = bitcast { i64, i8 }* %0 to i64*, !dbg !805
  store i64 %3, i64* %6, align 8, !dbg !805
  %7 = getelementptr inbounds { i64, i8 }, { i64, i8 }* %0, i32 0, i32 1, !dbg !805
  store i8 %5, i8* %7, align 8, !dbg !805
  %8 = getelementptr inbounds { i64, i8 }, { i64, i8 }* %0, i32 0, i32 0, !dbg !805
  %_5.0 = load i64, i64* %8, align 8, !dbg !805
  %9 = getelementptr inbounds { i64, i8 }, { i64, i8 }* %0, i32 0, i32 1, !dbg !805
  %10 = load i8, i8* %9, align 8, !dbg !805, !range !562
  %_5.1 = trunc i8 %10 to i1, !dbg !805
  br label %bb1, !dbg !805

bb1:                                              ; preds = %start
  store i64 %_5.0, i64* %a.dbg.spill, align 8, !dbg !806
  call void @llvm.dbg.declare(metadata i64* %a.dbg.spill, metadata !800, metadata !DIExpression()), !dbg !807
  %11 = zext i1 %_5.1 to i8, !dbg !808
  store i8 %11, i8* %b.dbg.spill, align 1, !dbg !808
  call void @llvm.dbg.declare(metadata i8* %b.dbg.spill, metadata !802, metadata !DIExpression()), !dbg !809
  %12 = bitcast { i64, i8 }* %1 to i64*, !dbg !810
  store i64 %_5.0, i64* %12, align 8, !dbg !810
  %13 = getelementptr inbounds { i64, i8 }, { i64, i8 }* %1, i32 0, i32 1, !dbg !810
  %14 = zext i1 %_5.1 to i8, !dbg !810
  store i8 %14, i8* %13, align 8, !dbg !810
  %15 = getelementptr inbounds { i64, i8 }, { i64, i8 }* %1, i32 0, i32 0, !dbg !811
  %16 = load i64, i64* %15, align 8, !dbg !811
  %17 = getelementptr inbounds { i64, i8 }, { i64, i8 }* %1, i32 0, i32 1, !dbg !811
  %18 = load i8, i8* %17, align 8, !dbg !811, !range !562
  %19 = trunc i8 %18 to i1, !dbg !811
  %20 = zext i1 %19 to i8, !dbg !811
  %21 = insertvalue { i64, i8 } undef, i64 %16, 0, !dbg !811
  %22 = insertvalue { i64, i8 } %21, i8 %20, 1, !dbg !811
  ret { i64, i8 } %22, !dbg !811
}

; core::num::<impl usize>::overflowing_mul
; Function Attrs: inlinehint uwtable
define internal { i64, i8 } @"_ZN4core3num23_$LT$impl$u20$usize$GT$15overflowing_mul17h20a079e5861f22b5E"(i64 %self, i64 %rhs) unnamed_addr #0 !dbg !812 {
start:
  %b.dbg.spill = alloca i8, align 1
  %a.dbg.spill = alloca i64, align 8
  %0 = alloca { i64, i8 }, align 8
  %rhs.dbg.spill = alloca i64, align 8
  %self.dbg.spill = alloca i64, align 8
  %1 = alloca { i64, i8 }, align 8
  store i64 %self, i64* %self.dbg.spill, align 8
  call void @llvm.dbg.declare(metadata i64* %self.dbg.spill, metadata !814, metadata !DIExpression()), !dbg !819
  store i64 %rhs, i64* %rhs.dbg.spill, align 8
  call void @llvm.dbg.declare(metadata i64* %rhs.dbg.spill, metadata !815, metadata !DIExpression()), !dbg !820
  %2 = call { i64, i1 } @llvm.umul.with.overflow.i64(i64 %self, i64 %rhs), !dbg !821
  %3 = extractvalue { i64, i1 } %2, 0, !dbg !821
  %4 = extractvalue { i64, i1 } %2, 1, !dbg !821
  %5 = zext i1 %4 to i8, !dbg !821
  %6 = bitcast { i64, i8 }* %0 to i64*, !dbg !821
  store i64 %3, i64* %6, align 8, !dbg !821
  %7 = getelementptr inbounds { i64, i8 }, { i64, i8 }* %0, i32 0, i32 1, !dbg !821
  store i8 %5, i8* %7, align 8, !dbg !821
  %8 = getelementptr inbounds { i64, i8 }, { i64, i8 }* %0, i32 0, i32 0, !dbg !821
  %_5.0 = load i64, i64* %8, align 8, !dbg !821
  %9 = getelementptr inbounds { i64, i8 }, { i64, i8 }* %0, i32 0, i32 1, !dbg !821
  %10 = load i8, i8* %9, align 8, !dbg !821, !range !562
  %_5.1 = trunc i8 %10 to i1, !dbg !821
  br label %bb1, !dbg !821

bb1:                                              ; preds = %start
  store i64 %_5.0, i64* %a.dbg.spill, align 8, !dbg !822
  call void @llvm.dbg.declare(metadata i64* %a.dbg.spill, metadata !816, metadata !DIExpression()), !dbg !823
  %11 = zext i1 %_5.1 to i8, !dbg !824
  store i8 %11, i8* %b.dbg.spill, align 1, !dbg !824
  call void @llvm.dbg.declare(metadata i8* %b.dbg.spill, metadata !818, metadata !DIExpression()), !dbg !825
  %12 = bitcast { i64, i8 }* %1 to i64*, !dbg !826
  store i64 %_5.0, i64* %12, align 8, !dbg !826
  %13 = getelementptr inbounds { i64, i8 }, { i64, i8 }* %1, i32 0, i32 1, !dbg !826
  %14 = zext i1 %_5.1 to i8, !dbg !826
  store i8 %14, i8* %13, align 8, !dbg !826
  %15 = getelementptr inbounds { i64, i8 }, { i64, i8 }* %1, i32 0, i32 0, !dbg !827
  %16 = load i64, i64* %15, align 8, !dbg !827
  %17 = getelementptr inbounds { i64, i8 }, { i64, i8 }* %1, i32 0, i32 1, !dbg !827
  %18 = load i8, i8* %17, align 8, !dbg !827, !range !562
  %19 = trunc i8 %18 to i1, !dbg !827
  %20 = zext i1 %19 to i8, !dbg !827
  %21 = insertvalue { i64, i8 } undef, i64 %16, 0, !dbg !827
  %22 = insertvalue { i64, i8 } %21, i8 %20, 1, !dbg !827
  ret { i64, i8 } %22, !dbg !827
}

; core::num::nonzero::NonZeroUsize::new_unchecked
; Function Attrs: inlinehint uwtable
define internal i64 @_ZN4core3num7nonzero12NonZeroUsize13new_unchecked17h8b08baa34b520ddaE(i64 %n) unnamed_addr #0 !dbg !828 {
start:
  %n.dbg.spill = alloca i64, align 8
  %0 = alloca i64, align 8
  store i64 %n, i64* %n.dbg.spill, align 8
  call void @llvm.dbg.declare(metadata i64* %n.dbg.spill, metadata !837, metadata !DIExpression()), !dbg !838
  store i64 %n, i64* %0, align 8, !dbg !839
  %1 = load i64, i64* %0, align 8, !dbg !840, !range !841
  ret i64 %1, !dbg !840
}

; core::num::nonzero::NonZeroUsize::get
; Function Attrs: inlinehint uwtable
define internal i64 @_ZN4core3num7nonzero12NonZeroUsize3get17h0de60b073d697de7E(i64 %self) unnamed_addr #0 !dbg !842 {
start:
  %self.dbg.spill = alloca i64, align 8
  store i64 %self, i64* %self.dbg.spill, align 8
  call void @llvm.dbg.declare(metadata i64* %self.dbg.spill, metadata !846, metadata !DIExpression()), !dbg !847
  ret i64 %self, !dbg !848
}

; core::ops::function::FnOnce::call_once{{vtable.shim}}
; Function Attrs: inlinehint uwtable
define internal i32 @"_ZN4core3ops8function6FnOnce40call_once$u7b$$u7b$vtable.shim$u7d$$u7d$17hfe44064303efe754E"(i64** %_1) unnamed_addr #0 !dbg !849 {
start:
  %_1.dbg.spill = alloca i64**, align 8
  %_2 = alloca {}, align 1
  store i64** %_1, i64*** %_1.dbg.spill, align 8
  call void @llvm.dbg.declare(metadata i64*** %_1.dbg.spill, metadata !858, metadata !DIExpression()), !dbg !863
  call void @llvm.dbg.declare(metadata {}* %_2, metadata !859, metadata !DIExpression()), !dbg !863
  %0 = load i64*, i64** %_1, align 8, !dbg !863, !nonnull !4
; call core::ops::function::FnOnce::call_once
  %1 = call i32 @_ZN4core3ops8function6FnOnce9call_once17hd615b0dde5909329E(i64* nonnull %0), !dbg !863
  br label %bb1, !dbg !863

bb1:                                              ; preds = %start
  ret i32 %1, !dbg !863
}

; core::ops::function::FnOnce::call_once
; Function Attrs: inlinehint uwtable
define internal i8 @_ZN4core3ops8function6FnOnce9call_once17hc17bfcfdcb9c1090E(i64* noalias readonly align 8 dereferenceable(8) %0, i64* noalias readonly align 8 dereferenceable(8) %1) unnamed_addr #0 !dbg !864 {
start:
  %_1.dbg.spill = alloca {}, align 1
  %_2 = alloca { i64*, i64* }, align 8
  %2 = bitcast { i64*, i64* }* %_2 to i64**
  store i64* %0, i64** %2, align 8
  %3 = getelementptr inbounds { i64*, i64* }, { i64*, i64* }* %_2, i32 0, i32 1
  store i64* %1, i64** %3, align 8
  call void @llvm.dbg.declare(metadata {}* %_1.dbg.spill, metadata !868, metadata !DIExpression()), !dbg !877
  call void @llvm.dbg.declare(metadata { i64*, i64* }* %_2, metadata !869, metadata !DIExpression()), !dbg !877
  %4 = bitcast { i64*, i64* }* %_2 to i64**, !dbg !877
  %5 = load i64*, i64** %4, align 8, !dbg !877, !nonnull !4
  %6 = getelementptr inbounds { i64*, i64* }, { i64*, i64* }* %_2, i32 0, i32 1, !dbg !877
  %7 = load i64*, i64** %6, align 8, !dbg !877, !nonnull !4
; call core::cmp::impls::<impl core::cmp::Ord for usize>::cmp
  %8 = call i8 @"_ZN4core3cmp5impls50_$LT$impl$u20$core..cmp..Ord$u20$for$u20$usize$GT$3cmp17hf62e5446fc97cf93E"(i64* noalias readonly align 8 dereferenceable(8) %5, i64* noalias readonly align 8 dereferenceable(8) %7), !dbg !877, !range !529
  br label %bb1, !dbg !877

bb1:                                              ; preds = %start
  ret i8 %8, !dbg !877
}

; core::ops::function::FnOnce::call_once
; Function Attrs: inlinehint uwtable
define internal i32 @_ZN4core3ops8function6FnOnce9call_once17hd615b0dde5909329E(i64* nonnull %0) unnamed_addr #0 personality i32 (i32, i32, i64, %"unwind::libunwind::_Unwind_Exception"*, %"unwind::libunwind::_Unwind_Context"*)* @rust_eh_personality !dbg !878 {
start:
  %1 = alloca { i8*, i32 }, align 8
  %_2 = alloca {}, align 1
  %_1 = alloca i64*, align 8
  store i64* %0, i64** %_1, align 8
  call void @llvm.dbg.declare(metadata i64** %_1, metadata !882, metadata !DIExpression()), !dbg !884
  call void @llvm.dbg.declare(metadata {}* %_2, metadata !883, metadata !DIExpression()), !dbg !884
; invoke std::rt::lang_start::{{closure}}
  %2 = invoke i32 @"_ZN3std2rt10lang_start28_$u7b$$u7b$closure$u7d$$u7d$17hfeef0170a1ee02c4E"(i64** noalias readonly align 8 dereferenceable(8) %_1)
          to label %bb1 unwind label %cleanup, !dbg !884

bb1:                                              ; preds = %start
  br label %bb2, !dbg !884

bb2:                                              ; preds = %bb1
  ret i32 %2, !dbg !884

bb3:                                              ; preds = %cleanup
  br label %bb4, !dbg !884

bb4:                                              ; preds = %bb3
  %3 = bitcast { i8*, i32 }* %1 to i8**, !dbg !884
  %4 = load i8*, i8** %3, align 8, !dbg !884
  %5 = getelementptr inbounds { i8*, i32 }, { i8*, i32 }* %1, i32 0, i32 1, !dbg !884
  %6 = load i32, i32* %5, align 8, !dbg !884
  %7 = insertvalue { i8*, i32 } undef, i8* %4, 0, !dbg !884
  %8 = insertvalue { i8*, i32 } %7, i32 %6, 1, !dbg !884
  resume { i8*, i32 } %8, !dbg !884

cleanup:                                          ; preds = %start
  %9 = landingpad { i8*, i32 }
          cleanup
  %10 = extractvalue { i8*, i32 } %9, 0
  %11 = extractvalue { i8*, i32 } %9, 1
  %12 = getelementptr inbounds { i8*, i32 }, { i8*, i32 }* %1, i32 0, i32 0
  store i8* %10, i8** %12, align 8
  %13 = getelementptr inbounds { i8*, i32 }, { i8*, i32 }* %1, i32 0, i32 1
  store i32 %11, i32* %13, align 8
  br label %bb3
}

; core::ops::function::FnOnce::call_once
; Function Attrs: inlinehint uwtable
define internal void @_ZN4core3ops8function6FnOnce9call_once17hde9bf1e025605f9fE(void ()* nonnull %_1) unnamed_addr #0 !dbg !885 {
start:
  %_1.dbg.spill = alloca void ()*, align 8
  %_2 = alloca {}, align 1
  store void ()* %_1, void ()** %_1.dbg.spill, align 8
  call void @llvm.dbg.declare(metadata void ()** %_1.dbg.spill, metadata !887, metadata !DIExpression()), !dbg !891
  call void @llvm.dbg.declare(metadata {}* %_2, metadata !888, metadata !DIExpression()), !dbg !891
  call void %_1(), !dbg !891
  br label %bb1, !dbg !891

bb1:                                              ; preds = %start
  ret void, !dbg !891
}

; core::ptr::drop_in_place<alloc::boxed::Box<dyn std::error::Error+core::marker::Sync+core::marker::Send>>
; Function Attrs: uwtable
define internal void @"_ZN4core3ptr117drop_in_place$LT$alloc..boxed..Box$LT$dyn$u20$std..error..Error$u2b$core..marker..Sync$u2b$core..marker..Send$GT$$GT$17h69258aefc50a14c9E"({ {}*, [3 x i64]* }* %_1) unnamed_addr #2 personality i32 (i32, i32, i64, %"unwind::libunwind::_Unwind_Exception"*, %"unwind::libunwind::_Unwind_Context"*)* @rust_eh_personality !dbg !892 {
start:
  %0 = alloca { i8*, i32 }, align 8
  %_1.dbg.spill = alloca { {}*, [3 x i64]* }*, align 8
  %1 = alloca {}, align 1
  store { {}*, [3 x i64]* }* %_1, { {}*, [3 x i64]* }** %_1.dbg.spill, align 8
  call void @llvm.dbg.declare(metadata { {}*, [3 x i64]* }** %_1.dbg.spill, metadata !898, metadata !DIExpression()), !dbg !901
  %2 = getelementptr inbounds { {}*, [3 x i64]* }, { {}*, [3 x i64]* }* %_1, i32 0, i32 0, !dbg !901
  %3 = load {}*, {}** %2, align 8, !dbg !901, !nonnull !4
  %4 = getelementptr inbounds { {}*, [3 x i64]* }, { {}*, [3 x i64]* }* %_1, i32 0, i32 1, !dbg !901
  %5 = load [3 x i64]*, [3 x i64]** %4, align 8, !dbg !901, !nonnull !4
  %6 = bitcast [3 x i64]* %5 to void ({}*)**, !dbg !901
  %7 = getelementptr inbounds void ({}*)*, void ({}*)** %6, i64 0, !dbg !901
  %8 = load void ({}*)*, void ({}*)** %7, align 8, !dbg !901, !invariant.load !4, !nonnull !4
  invoke void %8({}* %3)
          to label %bb3 unwind label %cleanup, !dbg !901

bb1:                                              ; preds = %bb3
  ret void, !dbg !901

bb2:                                              ; preds = %bb4
  %9 = bitcast { i8*, i32 }* %0 to i8**, !dbg !901
  %10 = load i8*, i8** %9, align 8, !dbg !901
  %11 = getelementptr inbounds { i8*, i32 }, { i8*, i32 }* %0, i32 0, i32 1, !dbg !901
  %12 = load i32, i32* %11, align 8, !dbg !901
  %13 = insertvalue { i8*, i32 } undef, i8* %10, 0, !dbg !901
  %14 = insertvalue { i8*, i32 } %13, i32 %12, 1, !dbg !901
  resume { i8*, i32 } %14, !dbg !901

bb3:                                              ; preds = %start
  %15 = bitcast { {}*, [3 x i64]* }* %_1 to { i8*, i64* }*, !dbg !901
  %16 = getelementptr inbounds { i8*, i64* }, { i8*, i64* }* %15, i32 0, i32 0, !dbg !901
  %17 = load i8*, i8** %16, align 8, !dbg !901, !nonnull !4
  %18 = getelementptr inbounds { i8*, i64* }, { i8*, i64* }* %15, i32 0, i32 1, !dbg !901
  %19 = load i64*, i64** %18, align 8, !dbg !901, !nonnull !4
; call alloc::alloc::box_free
  call void @_ZN5alloc5alloc8box_free17hce2380dfd27394e3E(i8* nonnull %17, i64* noalias readonly align 8 dereferenceable(24) %19), !dbg !901
  br label %bb1, !dbg !901

bb4:                                              ; preds = %cleanup
  %20 = bitcast { {}*, [3 x i64]* }* %_1 to { i8*, i64* }*, !dbg !901
  %21 = getelementptr inbounds { i8*, i64* }, { i8*, i64* }* %20, i32 0, i32 0, !dbg !901
  %22 = load i8*, i8** %21, align 8, !dbg !901, !nonnull !4
  %23 = getelementptr inbounds { i8*, i64* }, { i8*, i64* }* %20, i32 0, i32 1, !dbg !901
  %24 = load i64*, i64** %23, align 8, !dbg !901, !nonnull !4
; call alloc::alloc::box_free
  call void @_ZN5alloc5alloc8box_free17hce2380dfd27394e3E(i8* nonnull %22, i64* noalias readonly align 8 dereferenceable(24) %24) #13, !dbg !901
  br label %bb2, !dbg !901

cleanup:                                          ; preds = %start
  %25 = landingpad { i8*, i32 }
          cleanup
  %26 = extractvalue { i8*, i32 } %25, 0
  %27 = extractvalue { i8*, i32 } %25, 1
  %28 = getelementptr inbounds { i8*, i32 }, { i8*, i32 }* %0, i32 0, i32 0
  store i8* %26, i8** %28, align 8
  %29 = getelementptr inbounds { i8*, i32 }, { i8*, i32 }* %0, i32 0, i32 1
  store i32 %27, i32* %29, align 8
  br label %bb4
}

; core::ptr::swap_nonoverlapping
; Function Attrs: inlinehint uwtable
define internal void @_ZN4core3ptr19swap_nonoverlapping17h907401123aece596E(i32* %x, i32* %y, i64 %count) unnamed_addr #0 !dbg !902 {
start:
  %len.dbg.spill = alloca i64, align 8
  %y.dbg.spill4 = alloca i8*, align 8
  %x.dbg.spill2 = alloca i8*, align 8
  %count.dbg.spill = alloca i64, align 8
  %y.dbg.spill = alloca i32*, align 8
  %x.dbg.spill = alloca i32*, align 8
  store i32* %x, i32** %x.dbg.spill, align 8
  call void @llvm.dbg.declare(metadata i32** %x.dbg.spill, metadata !906, metadata !DIExpression()), !dbg !915
  store i32* %y, i32** %y.dbg.spill, align 8
  call void @llvm.dbg.declare(metadata i32** %y.dbg.spill, metadata !907, metadata !DIExpression()), !dbg !916
  store i64 %count, i64* %count.dbg.spill, align 8
  call void @llvm.dbg.declare(metadata i64* %count.dbg.spill, metadata !908, metadata !DIExpression()), !dbg !917
  %x1 = bitcast i32* %x to i8*, !dbg !918
  store i8* %x1, i8** %x.dbg.spill2, align 8, !dbg !918
  call void @llvm.dbg.declare(metadata i8** %x.dbg.spill2, metadata !909, metadata !DIExpression()), !dbg !919
  %y3 = bitcast i32* %y to i8*, !dbg !920
  store i8* %y3, i8** %y.dbg.spill4, align 8, !dbg !920
  call void @llvm.dbg.declare(metadata i8** %y.dbg.spill4, metadata !911, metadata !DIExpression()), !dbg !921
  br label %bb1, !dbg !922

bb1:                                              ; preds = %start
  %len = mul i64 4, %count, !dbg !922
  store i64 %len, i64* %len.dbg.spill, align 8, !dbg !922
  call void @llvm.dbg.declare(metadata i64* %len.dbg.spill, metadata !913, metadata !DIExpression()), !dbg !923
; call core::ptr::swap_nonoverlapping_bytes
  call void @_ZN4core3ptr25swap_nonoverlapping_bytes17hc03b8afa147a7e62E(i8* %x1, i8* %y3, i64 %len), !dbg !924
  br label %bb2, !dbg !924

bb2:                                              ; preds = %bb1
  ret void, !dbg !925
}

; core::ptr::swap_nonoverlapping_one
; Function Attrs: inlinehint uwtable
define internal void @_ZN4core3ptr23swap_nonoverlapping_one17h17e674463ef70044E(i32* %x, i32* %y) unnamed_addr #0 personality i32 (i32, i32, i64, %"unwind::libunwind::_Unwind_Exception"*, %"unwind::libunwind::_Unwind_Context"*)* @rust_eh_personality !dbg !926 {
start:
  %0 = alloca { i8*, i32 }, align 8
  %z.dbg.spill = alloca i32, align 4
  %y.dbg.spill = alloca i32*, align 8
  %x.dbg.spill = alloca i32*, align 8
  %_18 = alloca i8, align 1
  %1 = alloca {}, align 1
  store i32* %x, i32** %x.dbg.spill, align 8
  call void @llvm.dbg.declare(metadata i32** %x.dbg.spill, metadata !930, metadata !DIExpression()), !dbg !934
  store i32* %y, i32** %y.dbg.spill, align 8
  call void @llvm.dbg.declare(metadata i32** %y.dbg.spill, metadata !931, metadata !DIExpression()), !dbg !935
  store i8 0, i8* %_18, align 1, !dbg !936
  br label %bb1, !dbg !936

bb1:                                              ; preds = %start
  %_3 = icmp ult i64 4, 32, !dbg !936
  br i1 %_3, label %bb2, label %bb3, !dbg !937

bb2:                                              ; preds = %bb1
  store i8 1, i8* %_18, align 1, !dbg !938
; call core::ptr::read
  %z = call i32 @_ZN4core3ptr4read17h48420c0e37d7acc5E(i32* %x), !dbg !938
  store i32 %z, i32* %z.dbg.spill, align 4, !dbg !938
  call void @llvm.dbg.declare(metadata i32* %z.dbg.spill, metadata !932, metadata !DIExpression()), !dbg !939
  br label %bb4, !dbg !938

bb3:                                              ; preds = %bb1
; call core::ptr::swap_nonoverlapping
  call void @_ZN4core3ptr19swap_nonoverlapping17h907401123aece596E(i32* %x, i32* %y, i64 1), !dbg !940
  br label %bb7, !dbg !940

bb4:                                              ; preds = %bb2
; invoke core::intrinsics::copy_nonoverlapping
  invoke void @_ZN4core10intrinsics19copy_nonoverlapping17hed1b488914f537b3E(i32* %y, i32* %x, i64 1)
          to label %bb5 unwind label %cleanup, !dbg !941

bb5:                                              ; preds = %bb4
  store i8 0, i8* %_18, align 1, !dbg !942
; invoke core::ptr::write
  invoke void @_ZN4core3ptr5write17haa5b6f37c3764e24E(i32* %y, i32 %z)
          to label %bb6 unwind label %cleanup, !dbg !943

bb6:                                              ; preds = %bb5
  store i8 0, i8* %_18, align 1, !dbg !944
  br label %bb8, !dbg !937

bb7:                                              ; preds = %bb3
  br label %bb8, !dbg !937

bb8:                                              ; preds = %bb7, %bb6
  ret void, !dbg !945

bb9:                                              ; preds = %bb10, %bb11
  %2 = bitcast { i8*, i32 }* %0 to i8**, !dbg !946
  %3 = load i8*, i8** %2, align 8, !dbg !946
  %4 = getelementptr inbounds { i8*, i32 }, { i8*, i32 }* %0, i32 0, i32 1, !dbg !946
  %5 = load i32, i32* %4, align 8, !dbg !946
  %6 = insertvalue { i8*, i32 } undef, i8* %3, 0, !dbg !946
  %7 = insertvalue { i8*, i32 } %6, i32 %5, 1, !dbg !946
  resume { i8*, i32 } %7, !dbg !946

bb10:                                             ; preds = %bb11
  br label %bb9, !dbg !944

bb11:                                             ; preds = %cleanup
  %8 = load i8, i8* %_18, align 1, !dbg !944, !range !562
  %9 = trunc i8 %8 to i1, !dbg !944
  br i1 %9, label %bb10, label %bb9, !dbg !944

cleanup:                                          ; preds = %bb5, %bb4
  %10 = landingpad { i8*, i32 }
          cleanup
  %11 = extractvalue { i8*, i32 } %10, 0
  %12 = extractvalue { i8*, i32 } %10, 1
  %13 = getelementptr inbounds { i8*, i32 }, { i8*, i32 }* %0, i32 0, i32 0
  store i8* %11, i8** %13, align 8
  %14 = getelementptr inbounds { i8*, i32 }, { i8*, i32 }* %0, i32 0, i32 1
  store i32 %12, i32* %14, align 8
  br label %bb11
}

; core::ptr::slice_from_raw_parts_mut
; Function Attrs: inlinehint uwtable
define internal { [0 x i8]*, i64 } @_ZN4core3ptr24slice_from_raw_parts_mut17hf70d6c7ec16c922dE(i8* %data, i64 %len) unnamed_addr #0 !dbg !947 {
start:
  %len.dbg.spill = alloca i64, align 8
  %data.dbg.spill = alloca i8*, align 8
  %_4 = alloca { i8*, i64 }, align 8
  %_3 = alloca %"std::ptr::Repr<u8>", align 8
  store i8* %data, i8** %data.dbg.spill, align 8
  call void @llvm.dbg.declare(metadata i8** %data.dbg.spill, metadata !955, metadata !DIExpression()), !dbg !957
  store i64 %len, i64* %len.dbg.spill, align 8
  call void @llvm.dbg.declare(metadata i64* %len.dbg.spill, metadata !956, metadata !DIExpression()), !dbg !958
  %0 = bitcast { i8*, i64 }* %_4 to i8**, !dbg !959
  store i8* %data, i8** %0, align 8, !dbg !959
  %1 = getelementptr inbounds { i8*, i64 }, { i8*, i64 }* %_4, i32 0, i32 1, !dbg !959
  store i64 %len, i64* %1, align 8, !dbg !959
  %2 = bitcast %"std::ptr::Repr<u8>"* %_3 to { i8*, i64 }*, !dbg !960
  %3 = getelementptr inbounds { i8*, i64 }, { i8*, i64 }* %_4, i32 0, i32 0, !dbg !960
  %4 = load i8*, i8** %3, align 8, !dbg !960
  %5 = getelementptr inbounds { i8*, i64 }, { i8*, i64 }* %_4, i32 0, i32 1, !dbg !960
  %6 = load i64, i64* %5, align 8, !dbg !960
  %7 = getelementptr inbounds { i8*, i64 }, { i8*, i64 }* %2, i32 0, i32 0, !dbg !960
  store i8* %4, i8** %7, align 8, !dbg !960
  %8 = getelementptr inbounds { i8*, i64 }, { i8*, i64 }* %2, i32 0, i32 1, !dbg !960
  store i64 %6, i64* %8, align 8, !dbg !960
  %9 = bitcast %"std::ptr::Repr<u8>"* %_3 to { [0 x i8]*, i64 }*, !dbg !960
  %10 = getelementptr inbounds { [0 x i8]*, i64 }, { [0 x i8]*, i64 }* %9, i32 0, i32 0, !dbg !960
  %11 = load [0 x i8]*, [0 x i8]** %10, align 8, !dbg !960
  %12 = getelementptr inbounds { [0 x i8]*, i64 }, { [0 x i8]*, i64 }* %9, i32 0, i32 1, !dbg !960
  %13 = load i64, i64* %12, align 8, !dbg !960
  %14 = insertvalue { [0 x i8]*, i64 } undef, [0 x i8]* %11, 0, !dbg !961
  %15 = insertvalue { [0 x i8]*, i64 } %14, i64 %13, 1, !dbg !961
  ret { [0 x i8]*, i64 } %15, !dbg !961
}

; core::ptr::slice_from_raw_parts_mut
; Function Attrs: inlinehint uwtable
define internal { [0 x %A]*, i64 } @_ZN4core3ptr24slice_from_raw_parts_mut17hfab97bbaa61f26dcE(%A* %data, i64 %len) unnamed_addr #0 !dbg !962 {
start:
  %len.dbg.spill = alloca i64, align 8
  %data.dbg.spill = alloca %A*, align 8
  %_4 = alloca { i64*, i64 }, align 8
  %_3 = alloca %"std::ptr::Repr<A>", align 8
  store %A* %data, %A** %data.dbg.spill, align 8
  call void @llvm.dbg.declare(metadata %A** %data.dbg.spill, metadata !980, metadata !DIExpression()), !dbg !984
  store i64 %len, i64* %len.dbg.spill, align 8
  call void @llvm.dbg.declare(metadata i64* %len.dbg.spill, metadata !981, metadata !DIExpression()), !dbg !985
  %0 = bitcast { i64*, i64 }* %_4 to %A**, !dbg !986
  store %A* %data, %A** %0, align 8, !dbg !986
  %1 = getelementptr inbounds { i64*, i64 }, { i64*, i64 }* %_4, i32 0, i32 1, !dbg !986
  store i64 %len, i64* %1, align 8, !dbg !986
  %2 = bitcast %"std::ptr::Repr<A>"* %_3 to { i64*, i64 }*, !dbg !987
  %3 = getelementptr inbounds { i64*, i64 }, { i64*, i64 }* %_4, i32 0, i32 0, !dbg !987
  %4 = load i64*, i64** %3, align 8, !dbg !987
  %5 = getelementptr inbounds { i64*, i64 }, { i64*, i64 }* %_4, i32 0, i32 1, !dbg !987
  %6 = load i64, i64* %5, align 8, !dbg !987
  %7 = getelementptr inbounds { i64*, i64 }, { i64*, i64 }* %2, i32 0, i32 0, !dbg !987
  store i64* %4, i64** %7, align 8, !dbg !987
  %8 = getelementptr inbounds { i64*, i64 }, { i64*, i64 }* %2, i32 0, i32 1, !dbg !987
  store i64 %6, i64* %8, align 8, !dbg !987
  %9 = bitcast %"std::ptr::Repr<A>"* %_3 to { [0 x %A]*, i64 }*, !dbg !987
  %10 = getelementptr inbounds { [0 x %A]*, i64 }, { [0 x %A]*, i64 }* %9, i32 0, i32 0, !dbg !987
  %11 = load [0 x %A]*, [0 x %A]** %10, align 8, !dbg !987
  %12 = getelementptr inbounds { [0 x %A]*, i64 }, { [0 x %A]*, i64 }* %9, i32 0, i32 1, !dbg !987
  %13 = load i64, i64* %12, align 8, !dbg !987
  %14 = insertvalue { [0 x %A]*, i64 } undef, [0 x %A]* %11, 0, !dbg !988
  %15 = insertvalue { [0 x %A]*, i64 } %14, i64 %13, 1, !dbg !988
  ret { [0 x %A]*, i64 } %15, !dbg !988
}

; core::ptr::swap_nonoverlapping_bytes
; Function Attrs: inlinehint uwtable
define internal void @_ZN4core3ptr25swap_nonoverlapping_bytes17hc03b8afa147a7e62E(i8* %x, i8* %y, i64 %len) unnamed_addr #0 !dbg !989 {
start:
  %self.dbg.spill.i13 = alloca %"std::mem::MaybeUninit<std::ptr::swap_nonoverlapping_bytes::UnalignedBlock>"*, align 8
  %self.dbg.spill.i = alloca <4 x i64>*, align 8
  %y.dbg.spill12 = alloca i8*, align 8
  %x.dbg.spill10 = alloca i8*, align 8
  %t.dbg.spill8 = alloca i8*, align 8
  %rem.dbg.spill = alloca i64, align 8
  %y.dbg.spill6 = alloca i8*, align 8
  %x.dbg.spill4 = alloca i8*, align 8
  %t.dbg.spill = alloca i8*, align 8
  %block_size.dbg.spill = alloca i64, align 8
  %len.dbg.spill = alloca i64, align 8
  %y.dbg.spill = alloca i8*, align 8
  %x.dbg.spill = alloca i8*, align 8
  %t1 = alloca %"std::mem::MaybeUninit<std::ptr::swap_nonoverlapping_bytes::UnalignedBlock>", align 8
  %t = alloca <4 x i64>, align 32
  %i = alloca i64, align 8
  %0 = alloca {}, align 1
  store i8* %x, i8** %x.dbg.spill, align 8
  call void @llvm.dbg.declare(metadata i8** %x.dbg.spill, metadata !993, metadata !DIExpression()), !dbg !1051
  store i8* %y, i8** %y.dbg.spill, align 8
  call void @llvm.dbg.declare(metadata i8** %y.dbg.spill, metadata !994, metadata !DIExpression()), !dbg !1052
  store i64 %len, i64* %len.dbg.spill, align 8
  call void @llvm.dbg.declare(metadata i64* %len.dbg.spill, metadata !995, metadata !DIExpression()), !dbg !1053
  call void @llvm.dbg.declare(metadata i64* %i, metadata !998, metadata !DIExpression()), !dbg !1054
  call void @llvm.dbg.declare(metadata <4 x i64>* %t, metadata !1000, metadata !DIExpression()), !dbg !1055
  call void @llvm.dbg.declare(metadata %"std::mem::MaybeUninit<std::ptr::swap_nonoverlapping_bytes::UnalignedBlock>"* %t1, metadata !1026, metadata !DIExpression()), !dbg !1056
  store i64 32, i64* %block_size.dbg.spill, align 8, !dbg !1057
  call void @llvm.dbg.declare(metadata i64* %block_size.dbg.spill, metadata !996, metadata !DIExpression()), !dbg !1058
  br label %bb1, !dbg !1057

bb1:                                              ; preds = %start
  store i64 0, i64* %i, align 8, !dbg !1059
  br label %bb2, !dbg !1060

bb2:                                              ; preds = %bb11, %bb1
  %_8 = load i64, i64* %i, align 8, !dbg !1061
  %_7 = add i64 %_8, 32, !dbg !1061
  %_6 = icmp ule i64 %_7, %len, !dbg !1061
  br i1 %_6, label %bb4, label %bb3, !dbg !1060

bb3:                                              ; preds = %bb2
  %_38 = load i64, i64* %i, align 8, !dbg !1062
  %_37 = icmp ult i64 %_38, %len, !dbg !1062
  br i1 %_37, label %bb12, label %bb13, !dbg !1063

bb4:                                              ; preds = %bb2
  %1 = bitcast <4 x i64>* %t to {}*, !dbg !1064
  br label %bb5, !dbg !1070

bb5:                                              ; preds = %bb4
  store <4 x i64>* %t, <4 x i64>** %self.dbg.spill.i, align 8
  call void @llvm.dbg.declare(metadata <4 x i64>** %self.dbg.spill.i, metadata !1071, metadata !DIExpression()), !dbg !1078
  br label %bb6, !dbg !1080

bb6:                                              ; preds = %bb5
  %t2 = bitcast <4 x i64>* %t to i8*, !dbg !1080
  store i8* %t2, i8** %t.dbg.spill, align 8, !dbg !1080
  call void @llvm.dbg.declare(metadata i8** %t.dbg.spill, metadata !1020, metadata !DIExpression()), !dbg !1081
  %_17 = load i64, i64* %i, align 8, !dbg !1082
; call core::ptr::mut_ptr::<impl *mut T>::add
  %x3 = call i8* @"_ZN4core3ptr7mut_ptr31_$LT$impl$u20$$BP$mut$u20$T$GT$3add17hb6f504fcb2bf99e1E"(i8* %x, i64 %_17), !dbg !1083
  store i8* %x3, i8** %x.dbg.spill4, align 8, !dbg !1083
  call void @llvm.dbg.declare(metadata i8** %x.dbg.spill4, metadata !1022, metadata !DIExpression()), !dbg !1084
  br label %bb7, !dbg !1083

bb7:                                              ; preds = %bb6
  %_20 = load i64, i64* %i, align 8, !dbg !1085
; call core::ptr::mut_ptr::<impl *mut T>::add
  %y5 = call i8* @"_ZN4core3ptr7mut_ptr31_$LT$impl$u20$$BP$mut$u20$T$GT$3add17hb6f504fcb2bf99e1E"(i8* %y, i64 %_20), !dbg !1086
  store i8* %y5, i8** %y.dbg.spill6, align 8, !dbg !1086
  call void @llvm.dbg.declare(metadata i8** %y.dbg.spill6, metadata !1024, metadata !DIExpression()), !dbg !1087
  br label %bb8, !dbg !1086

bb8:                                              ; preds = %bb7
; call core::intrinsics::copy_nonoverlapping
  call void @_ZN4core10intrinsics19copy_nonoverlapping17hef57dd4865cd0340E(i8* %x3, i8* %t2, i64 32), !dbg !1088
  br label %bb9, !dbg !1088

bb9:                                              ; preds = %bb8
; call core::intrinsics::copy_nonoverlapping
  call void @_ZN4core10intrinsics19copy_nonoverlapping17hef57dd4865cd0340E(i8* %y5, i8* %x3, i64 32), !dbg !1089
  br label %bb10, !dbg !1089

bb10:                                             ; preds = %bb9
; call core::intrinsics::copy_nonoverlapping
  call void @_ZN4core10intrinsics19copy_nonoverlapping17hef57dd4865cd0340E(i8* %t2, i8* %y5, i64 32), !dbg !1090
  br label %bb11, !dbg !1090

bb11:                                             ; preds = %bb10
  %2 = load i64, i64* %i, align 8, !dbg !1091
  %3 = add i64 %2, 32, !dbg !1091
  store i64 %3, i64* %i, align 8, !dbg !1091
  br label %bb2, !dbg !1060

bb12:                                             ; preds = %bb3
  %4 = bitcast %"std::mem::MaybeUninit<std::ptr::swap_nonoverlapping_bytes::UnalignedBlock>"* %t1 to {}*, !dbg !1092
  br label %bb14, !dbg !1097

bb13:                                             ; preds = %bb3
  br label %bb21, !dbg !1063

bb14:                                             ; preds = %bb12
  %_43 = load i64, i64* %i, align 8, !dbg !1098
  %rem = sub i64 %len, %_43, !dbg !1099
  store i64 %rem, i64* %rem.dbg.spill, align 8, !dbg !1099
  call void @llvm.dbg.declare(metadata i64* %rem.dbg.spill, metadata !1043, metadata !DIExpression()), !dbg !1100
  store %"std::mem::MaybeUninit<std::ptr::swap_nonoverlapping_bytes::UnalignedBlock>"* %t1, %"std::mem::MaybeUninit<std::ptr::swap_nonoverlapping_bytes::UnalignedBlock>"** %self.dbg.spill.i13, align 8
  call void @llvm.dbg.declare(metadata %"std::mem::MaybeUninit<std::ptr::swap_nonoverlapping_bytes::UnalignedBlock>"** %self.dbg.spill.i13, metadata !1101, metadata !DIExpression()), !dbg !1108
  %5 = bitcast %"std::mem::MaybeUninit<std::ptr::swap_nonoverlapping_bytes::UnalignedBlock>"* %t1 to %"std::ptr::swap_nonoverlapping_bytes::UnalignedBlock"*, !dbg !1110
  br label %bb15, !dbg !1111

bb15:                                             ; preds = %bb14
  %t7 = bitcast %"std::ptr::swap_nonoverlapping_bytes::UnalignedBlock"* %5 to i8*, !dbg !1111
  store i8* %t7, i8** %t.dbg.spill8, align 8, !dbg !1111
  call void @llvm.dbg.declare(metadata i8** %t.dbg.spill8, metadata !1045, metadata !DIExpression()), !dbg !1112
  %_49 = load i64, i64* %i, align 8, !dbg !1113
; call core::ptr::mut_ptr::<impl *mut T>::add
  %x9 = call i8* @"_ZN4core3ptr7mut_ptr31_$LT$impl$u20$$BP$mut$u20$T$GT$3add17hb6f504fcb2bf99e1E"(i8* %x, i64 %_49), !dbg !1114
  store i8* %x9, i8** %x.dbg.spill10, align 8, !dbg !1114
  call void @llvm.dbg.declare(metadata i8** %x.dbg.spill10, metadata !1047, metadata !DIExpression()), !dbg !1115
  br label %bb16, !dbg !1114

bb16:                                             ; preds = %bb15
  %_52 = load i64, i64* %i, align 8, !dbg !1116
; call core::ptr::mut_ptr::<impl *mut T>::add
  %y11 = call i8* @"_ZN4core3ptr7mut_ptr31_$LT$impl$u20$$BP$mut$u20$T$GT$3add17hb6f504fcb2bf99e1E"(i8* %y, i64 %_52), !dbg !1117
  store i8* %y11, i8** %y.dbg.spill12, align 8, !dbg !1117
  call void @llvm.dbg.declare(metadata i8** %y.dbg.spill12, metadata !1049, metadata !DIExpression()), !dbg !1118
  br label %bb17, !dbg !1117

bb17:                                             ; preds = %bb16
; call core::intrinsics::copy_nonoverlapping
  call void @_ZN4core10intrinsics19copy_nonoverlapping17hef57dd4865cd0340E(i8* %x9, i8* %t7, i64 %rem), !dbg !1119
  br label %bb18, !dbg !1119

bb18:                                             ; preds = %bb17
; call core::intrinsics::copy_nonoverlapping
  call void @_ZN4core10intrinsics19copy_nonoverlapping17hef57dd4865cd0340E(i8* %y11, i8* %x9, i64 %rem), !dbg !1120
  br label %bb19, !dbg !1120

bb19:                                             ; preds = %bb18
; call core::intrinsics::copy_nonoverlapping
  call void @_ZN4core10intrinsics19copy_nonoverlapping17hef57dd4865cd0340E(i8* %t7, i8* %y11, i64 %rem), !dbg !1121
  br label %bb20, !dbg !1121

bb20:                                             ; preds = %bb19
  br label %bb21, !dbg !1063

bb21:                                             ; preds = %bb13, %bb20
  ret void, !dbg !1122
}

; core::ptr::drop_in_place<device::A>
; Function Attrs: uwtable
define internal void @"_ZN4core3ptr30drop_in_place$LT$device..A$GT$17hfa444afcc8e0dcaaE"(%A* %_1) unnamed_addr #2 !dbg !1123 {
start:
  %_1.dbg.spill = alloca %A*, align 8
  %0 = alloca {}, align 1
  store %A* %_1, %A** %_1.dbg.spill, align 8
  call void @llvm.dbg.declare(metadata %A** %_1.dbg.spill, metadata !1127, metadata !DIExpression()), !dbg !1128
  %1 = bitcast %A* %_1 to %BS*, !dbg !1128
; call core::ptr::drop_in_place<device::BS>
  call void @"_ZN4core3ptr31drop_in_place$LT$device..BS$GT$17h5f43640bbebd7973E"(%BS* %1), !dbg !1128
  br label %bb1, !dbg !1128

bb1:                                              ; preds = %start
  ret void, !dbg !1128
}

; core::ptr::drop_in_place<device::BS>
; Function Attrs: uwtable
define internal void @"_ZN4core3ptr31drop_in_place$LT$device..BS$GT$17h5f43640bbebd7973E"(%BS* %_1) unnamed_addr #2 !dbg !1129 {
start:
  %_1.dbg.spill = alloca %BS*, align 8
  %0 = alloca {}, align 1
  store %BS* %_1, %BS** %_1.dbg.spill, align 8
  call void @llvm.dbg.declare(metadata %BS** %_1.dbg.spill, metadata !1134, metadata !DIExpression()), !dbg !1137
  %1 = bitcast %BS* %_1 to %"std::string::String"*, !dbg !1137
; call core::ptr::drop_in_place<alloc::string::String>
  call void @"_ZN4core3ptr42drop_in_place$LT$alloc..string..String$GT$17he41f680698343f5cE"(%"std::string::String"* %1), !dbg !1137
  br label %bb1, !dbg !1137

bb1:                                              ; preds = %start
  ret void, !dbg !1137
}

; core::ptr::drop_in_place<[device::A]>
; Function Attrs: uwtable
define internal void @"_ZN4core3ptr40drop_in_place$LT$$u5b$device..A$u5d$$GT$17h2f1e963de743fb6bE"([0 x %A]* %_1.0, i64 %_1.1) unnamed_addr #2 personality i32 (i32, i32, i64, %"unwind::libunwind::_Unwind_Exception"*, %"unwind::libunwind::_Unwind_Context"*)* @rust_eh_personality !dbg !1138 {
start:
  %0 = alloca { i8*, i32 }, align 8
  %_1.dbg.spill = alloca { [0 x %A]*, i64 }, align 8
  %_10 = alloca %A*, align 8
  %_9 = alloca %A*, align 8
  %_4 = alloca i64, align 8
  %1 = alloca {}, align 1
  %2 = getelementptr inbounds { [0 x %A]*, i64 }, { [0 x %A]*, i64 }* %_1.dbg.spill, i32 0, i32 0
  store [0 x %A]* %_1.0, [0 x %A]** %2, align 8
  %3 = getelementptr inbounds { [0 x %A]*, i64 }, { [0 x %A]*, i64 }* %_1.dbg.spill, i32 0, i32 1
  store i64 %_1.1, i64* %3, align 8
  call void @llvm.dbg.declare(metadata { [0 x %A]*, i64 }* %_1.dbg.spill, metadata !1142, metadata !DIExpression()), !dbg !1146
  br i1 false, label %bb7, label %bb12, !dbg !1146

bb1:                                              ; preds = %bb6, %bb11
  ret void, !dbg !1146

bb2:                                              ; preds = %bb4, %bb9
  %4 = bitcast { i8*, i32 }* %0 to i8**, !dbg !1146
  %5 = load i8*, i8** %4, align 8, !dbg !1146
  %6 = getelementptr inbounds { i8*, i32 }, { i8*, i32 }* %0, i32 0, i32 1, !dbg !1146
  %7 = load i32, i32* %6, align 8, !dbg !1146
  %8 = insertvalue { i8*, i32 } undef, i8* %5, 0, !dbg !1146
  %9 = insertvalue { i8*, i32 } %8, i32 %7, 1, !dbg !1146
  resume { i8*, i32 } %9, !dbg !1146

bb3:                                              ; preds = %bb4
  %10 = load i64, i64* %_4, align 8, !dbg !1146
  %_5 = getelementptr inbounds [0 x %A], [0 x %A]* %_1.0, i64 0, i64 %10, !dbg !1146
  %11 = load i64, i64* %_4, align 8, !dbg !1146
  %12 = add i64 %11, 1, !dbg !1146
  store i64 %12, i64* %_4, align 8, !dbg !1146
; call core::ptr::drop_in_place<device::A>
  call void @"_ZN4core3ptr30drop_in_place$LT$device..A$GT$17hfa444afcc8e0dcaaE"(%A* %_5) #13, !dbg !1146
  br label %bb4, !dbg !1146

bb4:                                              ; preds = %bb3, %cleanup1
  %13 = load i64, i64* %_4, align 8, !dbg !1146
  %_6 = icmp eq i64 %13, %_1.1, !dbg !1146
  br i1 %_6, label %bb2, label %bb3, !dbg !1146

bb5:                                              ; preds = %bb6
  %14 = load i64, i64* %_4, align 8, !dbg !1146
  %_7 = getelementptr inbounds [0 x %A], [0 x %A]* %_1.0, i64 0, i64 %14, !dbg !1146
  %15 = load i64, i64* %_4, align 8, !dbg !1146
  %16 = add i64 %15, 1, !dbg !1146
  store i64 %16, i64* %_4, align 8, !dbg !1146
; invoke core::ptr::drop_in_place<device::A>
  invoke void @"_ZN4core3ptr30drop_in_place$LT$device..A$GT$17hfa444afcc8e0dcaaE"(%A* %_7)
          to label %bb6 unwind label %cleanup1, !dbg !1146

bb6:                                              ; preds = %bb5, %bb7
  %17 = load i64, i64* %_4, align 8, !dbg !1146
  %_8 = icmp eq i64 %17, %_1.1, !dbg !1146
  br i1 %_8, label %bb1, label %bb5, !dbg !1146

bb7:                                              ; preds = %start
  store i64 0, i64* %_4, align 8, !dbg !1146
  br label %bb6, !dbg !1146

bb8:                                              ; preds = %bb9
  %_11 = load %A*, %A** %_9, align 8, !dbg !1146
  %18 = load %A*, %A** %_9, align 8, !dbg !1146
  %19 = getelementptr inbounds %A, %A* %18, i64 1, !dbg !1146
  store %A* %19, %A** %_9, align 8, !dbg !1146
; call core::ptr::drop_in_place<device::A>
  call void @"_ZN4core3ptr30drop_in_place$LT$device..A$GT$17hfa444afcc8e0dcaaE"(%A* %_11) #13, !dbg !1146
  br label %bb9, !dbg !1146

bb9:                                              ; preds = %bb8, %cleanup
  %20 = load %A*, %A** %_9, align 8, !dbg !1146
  %21 = load %A*, %A** %_10, align 8, !dbg !1146
  %_12 = icmp eq %A* %20, %21, !dbg !1146
  br i1 %_12, label %bb2, label %bb8, !dbg !1146

bb10:                                             ; preds = %bb11
  %_13 = load %A*, %A** %_9, align 8, !dbg !1146
  %22 = load %A*, %A** %_9, align 8, !dbg !1146
  %23 = getelementptr inbounds %A, %A* %22, i64 1, !dbg !1146
  store %A* %23, %A** %_9, align 8, !dbg !1146
; invoke core::ptr::drop_in_place<device::A>
  invoke void @"_ZN4core3ptr30drop_in_place$LT$device..A$GT$17hfa444afcc8e0dcaaE"(%A* %_13)
          to label %bb11 unwind label %cleanup, !dbg !1146

bb11:                                             ; preds = %bb10, %bb12
  %24 = load %A*, %A** %_9, align 8, !dbg !1146
  %25 = load %A*, %A** %_10, align 8, !dbg !1146
  %_14 = icmp eq %A* %24, %25, !dbg !1146
  br i1 %_14, label %bb1, label %bb10, !dbg !1146

bb12:                                             ; preds = %start
  %26 = bitcast [0 x %A]* %_1.0 to %A*, !dbg !1146
  store %A* %26, %A** %_9, align 8, !dbg !1146
  %27 = load %A*, %A** %_9, align 8, !dbg !1146
  %28 = getelementptr inbounds %A, %A* %27, i64 %_1.1, !dbg !1146
  store %A* %28, %A** %_10, align 8, !dbg !1146
  br label %bb11, !dbg !1146

cleanup:                                          ; preds = %bb10
  %29 = landingpad { i8*, i32 }
          cleanup
  %30 = extractvalue { i8*, i32 } %29, 0
  %31 = extractvalue { i8*, i32 } %29, 1
  %32 = getelementptr inbounds { i8*, i32 }, { i8*, i32 }* %0, i32 0, i32 0
  store i8* %30, i8** %32, align 8
  %33 = getelementptr inbounds { i8*, i32 }, { i8*, i32 }* %0, i32 0, i32 1
  store i32 %31, i32* %33, align 8
  br label %bb9

cleanup1:                                         ; preds = %bb5
  %34 = landingpad { i8*, i32 }
          cleanup
  %35 = extractvalue { i8*, i32 } %34, 0
  %36 = extractvalue { i8*, i32 } %34, 1
  %37 = getelementptr inbounds { i8*, i32 }, { i8*, i32 }* %0, i32 0, i32 0
  store i8* %35, i8** %37, align 8
  %38 = getelementptr inbounds { i8*, i32 }, { i8*, i32 }* %0, i32 0, i32 1
  store i32 %36, i32* %38, align 8
  br label %bb4
}

; core::ptr::drop_in_place<std::io::error::Repr>
; Function Attrs: uwtable
define internal void @"_ZN4core3ptr41drop_in_place$LT$std..io..error..Repr$GT$17hfe28fda71faf0f0eE"(%"std::io::error::Repr"* %_1) unnamed_addr #2 !dbg !1147 {
start:
  %_1.dbg.spill = alloca %"std::io::error::Repr"*, align 8
  %0 = alloca {}, align 1
  store %"std::io::error::Repr"* %_1, %"std::io::error::Repr"** %_1.dbg.spill, align 8
  call void @llvm.dbg.declare(metadata %"std::io::error::Repr"** %_1.dbg.spill, metadata !1152, metadata !DIExpression()), !dbg !1155
  %1 = bitcast %"std::io::error::Repr"* %_1 to i8*, !dbg !1155
  %2 = load i8, i8* %1, align 8, !dbg !1155, !range !1156
  %_2 = zext i8 %2 to i64, !dbg !1155
  switch i64 %_2, label %bb2 [
    i64 0, label %bb1
    i64 1, label %bb1
  ], !dbg !1155

bb1:                                              ; preds = %bb2, %start, %start
  ret void, !dbg !1155

bb2:                                              ; preds = %start
  %3 = bitcast %"std::io::error::Repr"* %_1 to %"std::io::error::Repr::Custom"*, !dbg !1155
  %4 = getelementptr inbounds %"std::io::error::Repr::Custom", %"std::io::error::Repr::Custom"* %3, i32 0, i32 1, !dbg !1155
; call core::ptr::drop_in_place<alloc::boxed::Box<std::io::error::Custom>>
  call void @"_ZN4core3ptr68drop_in_place$LT$alloc..boxed..Box$LT$std..io..error..Custom$GT$$GT$17hcbe327ded655ba01E"(%"std::io::error::Custom"** %4), !dbg !1155
  br label %bb1, !dbg !1155
}

; core::ptr::drop_in_place<alloc::string::String>
; Function Attrs: uwtable
define internal void @"_ZN4core3ptr42drop_in_place$LT$alloc..string..String$GT$17he41f680698343f5cE"(%"std::string::String"* %_1) unnamed_addr #2 !dbg !1157 {
start:
  %_1.dbg.spill = alloca %"std::string::String"*, align 8
  %0 = alloca {}, align 1
  store %"std::string::String"* %_1, %"std::string::String"** %_1.dbg.spill, align 8
  call void @llvm.dbg.declare(metadata %"std::string::String"** %_1.dbg.spill, metadata !1162, metadata !DIExpression()), !dbg !1164
  %1 = bitcast %"std::string::String"* %_1 to %"std::vec::Vec<u8>"*, !dbg !1164
; call core::ptr::drop_in_place<alloc::vec::Vec<u8>>
  call void @"_ZN4core3ptr46drop_in_place$LT$alloc..vec..Vec$LT$u8$GT$$GT$17h8f79e032df545985E"(%"std::vec::Vec<u8>"* %1), !dbg !1164
  br label %bb1, !dbg !1164

bb1:                                              ; preds = %start
  ret void, !dbg !1164
}

; core::ptr::drop_in_place<std::io::error::Error>
; Function Attrs: uwtable
define internal void @"_ZN4core3ptr42drop_in_place$LT$std..io..error..Error$GT$17hf39af0eac76d8474E"(%"std::io::Error"* %_1) unnamed_addr #2 !dbg !1165 {
start:
  %_1.dbg.spill = alloca %"std::io::Error"*, align 8
  %0 = alloca {}, align 1
  store %"std::io::Error"* %_1, %"std::io::Error"** %_1.dbg.spill, align 8
  call void @llvm.dbg.declare(metadata %"std::io::Error"** %_1.dbg.spill, metadata !1170, metadata !DIExpression()), !dbg !1173
  %1 = bitcast %"std::io::Error"* %_1 to %"std::io::error::Repr"*, !dbg !1173
; call core::ptr::drop_in_place<std::io::error::Repr>
  call void @"_ZN4core3ptr41drop_in_place$LT$std..io..error..Repr$GT$17hfe28fda71faf0f0eE"(%"std::io::error::Repr"* %1), !dbg !1173
  br label %bb1, !dbg !1173

bb1:                                              ; preds = %start
  ret void, !dbg !1173
}

; core::ptr::drop_in_place<std::io::error::Custom>
; Function Attrs: uwtable
define internal void @"_ZN4core3ptr43drop_in_place$LT$std..io..error..Custom$GT$17h5e5c7955116cb99fE"(%"std::io::error::Custom"* %_1) unnamed_addr #2 !dbg !1174 {
start:
  %_1.dbg.spill = alloca %"std::io::error::Custom"*, align 8
  %0 = alloca {}, align 1
  store %"std::io::error::Custom"* %_1, %"std::io::error::Custom"** %_1.dbg.spill, align 8
  call void @llvm.dbg.declare(metadata %"std::io::error::Custom"** %_1.dbg.spill, metadata !1179, metadata !DIExpression()), !dbg !1182
  %1 = bitcast %"std::io::error::Custom"* %_1 to { {}*, [3 x i64]* }*, !dbg !1182
; call core::ptr::drop_in_place<alloc::boxed::Box<dyn std::error::Error+core::marker::Sync+core::marker::Send>>
  call void @"_ZN4core3ptr117drop_in_place$LT$alloc..boxed..Box$LT$dyn$u20$std..error..Error$u2b$core..marker..Sync$u2b$core..marker..Send$GT$$GT$17h69258aefc50a14c9E"({ {}*, [3 x i64]* }* %1), !dbg !1182
  br label %bb1, !dbg !1182

bb1:                                              ; preds = %start
  ret void, !dbg !1182
}

; core::ptr::drop_in_place<alloc::vec::Vec<u8>>
; Function Attrs: uwtable
define internal void @"_ZN4core3ptr46drop_in_place$LT$alloc..vec..Vec$LT$u8$GT$$GT$17h8f79e032df545985E"(%"std::vec::Vec<u8>"* %_1) unnamed_addr #2 personality i32 (i32, i32, i64, %"unwind::libunwind::_Unwind_Exception"*, %"unwind::libunwind::_Unwind_Context"*)* @rust_eh_personality !dbg !1183 {
start:
  %0 = alloca { i8*, i32 }, align 8
  %_1.dbg.spill = alloca %"std::vec::Vec<u8>"*, align 8
  %1 = alloca {}, align 1
  store %"std::vec::Vec<u8>"* %_1, %"std::vec::Vec<u8>"** %_1.dbg.spill, align 8
  call void @llvm.dbg.declare(metadata %"std::vec::Vec<u8>"** %_1.dbg.spill, metadata !1188, metadata !DIExpression()), !dbg !1191
; invoke <alloc::vec::Vec<T,A> as core::ops::drop::Drop>::drop
  invoke void @"_ZN70_$LT$alloc..vec..Vec$LT$T$C$A$GT$$u20$as$u20$core..ops..drop..Drop$GT$4drop17h572a11ee9e5aff70E"(%"std::vec::Vec<u8>"* align 8 dereferenceable(24) %_1)
          to label %bb4 unwind label %cleanup, !dbg !1191

bb1:                                              ; preds = %bb3
  %2 = bitcast { i8*, i32 }* %0 to i8**, !dbg !1191
  %3 = load i8*, i8** %2, align 8, !dbg !1191
  %4 = getelementptr inbounds { i8*, i32 }, { i8*, i32 }* %0, i32 0, i32 1, !dbg !1191
  %5 = load i32, i32* %4, align 8, !dbg !1191
  %6 = insertvalue { i8*, i32 } undef, i8* %3, 0, !dbg !1191
  %7 = insertvalue { i8*, i32 } %6, i32 %5, 1, !dbg !1191
  resume { i8*, i32 } %7, !dbg !1191

bb2:                                              ; preds = %bb4
  ret void, !dbg !1191

bb3:                                              ; preds = %cleanup
  %8 = bitcast %"std::vec::Vec<u8>"* %_1 to { i8*, i64 }*, !dbg !1191
; call core::ptr::drop_in_place<alloc::raw_vec::RawVec<u8>>
  call void @"_ZN4core3ptr53drop_in_place$LT$alloc..raw_vec..RawVec$LT$u8$GT$$GT$17he28c59a90651cee0E"({ i8*, i64 }* %8) #13, !dbg !1191
  br label %bb1, !dbg !1191

bb4:                                              ; preds = %start
  %9 = bitcast %"std::vec::Vec<u8>"* %_1 to { i8*, i64 }*, !dbg !1191
; call core::ptr::drop_in_place<alloc::raw_vec::RawVec<u8>>
  call void @"_ZN4core3ptr53drop_in_place$LT$alloc..raw_vec..RawVec$LT$u8$GT$$GT$17he28c59a90651cee0E"({ i8*, i64 }* %9), !dbg !1191
  br label %bb2, !dbg !1191

cleanup:                                          ; preds = %start
  %10 = landingpad { i8*, i32 }
          cleanup
  %11 = extractvalue { i8*, i32 } %10, 0
  %12 = extractvalue { i8*, i32 } %10, 1
  %13 = getelementptr inbounds { i8*, i32 }, { i8*, i32 }* %0, i32 0, i32 0
  store i8* %11, i8** %13, align 8
  %14 = getelementptr inbounds { i8*, i32 }, { i8*, i32 }* %0, i32 0, i32 1
  store i32 %12, i32* %14, align 8
  br label %bb3
}

; core::ptr::drop_in_place<std::time::SystemTimeError>
; Function Attrs: inlinehint uwtable
define internal void @"_ZN4core3ptr47drop_in_place$LT$std..time..SystemTimeError$GT$17h6f2d85fac4a191b6E"({ i64, i32 }* %_1) unnamed_addr #0 !dbg !1192 {
start:
  %_1.dbg.spill = alloca { i64, i32 }*, align 8
  %0 = alloca {}, align 1
  store { i64, i32 }* %_1, { i64, i32 }** %_1.dbg.spill, align 8
  call void @llvm.dbg.declare(metadata { i64, i32 }** %_1.dbg.spill, metadata !1197, metadata !DIExpression()), !dbg !1200
  ret void, !dbg !1200
}

; core::ptr::read
; Function Attrs: inlinehint uwtable
define internal i32 @_ZN4core3ptr4read17h48420c0e37d7acc5E(i32* %src) unnamed_addr #0 !dbg !1201 {
start:
  %self.dbg.spill.i1 = alloca i32*, align 8
  %slot.dbg.spill.i.i = alloca i32, align 4
  %self.dbg.spill.i = alloca i32, align 4
  %0 = alloca i32, align 4
  %src.dbg.spill = alloca i32*, align 8
  %tmp = alloca i32, align 4
  store i32* %src, i32** %src.dbg.spill, align 8
  call void @llvm.dbg.declare(metadata i32** %src.dbg.spill, metadata !1205, metadata !DIExpression()), !dbg !1215
  call void @llvm.dbg.declare(metadata i32* %tmp, metadata !1206, metadata !DIExpression()), !dbg !1216
  %1 = bitcast i32* %0 to {}*, !dbg !1217
  %2 = load i32, i32* %0, align 4, !dbg !1222
  store i32 %2, i32* %tmp, align 4, !dbg !1223
  br label %bb1, !dbg !1223

bb1:                                              ; preds = %start
  store i32* %tmp, i32** %self.dbg.spill.i1, align 8
  call void @llvm.dbg.declare(metadata i32** %self.dbg.spill.i1, metadata !1224, metadata !DIExpression()), !dbg !1230
  br label %bb2, !dbg !1232

bb2:                                              ; preds = %bb1
; call core::intrinsics::copy_nonoverlapping
  call void @_ZN4core10intrinsics19copy_nonoverlapping17hed1b488914f537b3E(i32* %src, i32* %tmp, i64 1), !dbg !1233
  br label %bb3, !dbg !1233

bb3:                                              ; preds = %bb2
  %_7 = load i32, i32* %tmp, align 4, !dbg !1234
  store i32 %_7, i32* %self.dbg.spill.i, align 4
  call void @llvm.dbg.declare(metadata i32* %self.dbg.spill.i, metadata !1235, metadata !DIExpression()), !dbg !1240
  store i32 %_7, i32* %slot.dbg.spill.i.i, align 4
  call void @llvm.dbg.declare(metadata i32* %slot.dbg.spill.i.i, metadata !1242, metadata !DIExpression()), !dbg !1248
  br label %bb4, !dbg !1234

bb4:                                              ; preds = %bb3
  ret i32 %_7, !dbg !1250
}

; core::ptr::drop_in_place<alloc::raw_vec::RawVec<u8>>
; Function Attrs: uwtable
define internal void @"_ZN4core3ptr53drop_in_place$LT$alloc..raw_vec..RawVec$LT$u8$GT$$GT$17he28c59a90651cee0E"({ i8*, i64 }* %_1) unnamed_addr #2 !dbg !1251 {
start:
  %_1.dbg.spill = alloca { i8*, i64 }*, align 8
  %0 = alloca {}, align 1
  store { i8*, i64 }* %_1, { i8*, i64 }** %_1.dbg.spill, align 8
  call void @llvm.dbg.declare(metadata { i8*, i64 }** %_1.dbg.spill, metadata !1256, metadata !DIExpression()), !dbg !1259
; call <alloc::raw_vec::RawVec<T,A> as core::ops::drop::Drop>::drop
  call void @"_ZN77_$LT$alloc..raw_vec..RawVec$LT$T$C$A$GT$$u20$as$u20$core..ops..drop..Drop$GT$4drop17he590b7fd68f3e6d9E"({ i8*, i64 }* align 8 dereferenceable(16) %_1), !dbg !1259
  br label %bb1, !dbg !1259

bb1:                                              ; preds = %start
  ret void, !dbg !1259
}

; core::ptr::drop_in_place<alloc::vec::Vec<device::A>>
; Function Attrs: uwtable
define internal void @"_ZN4core3ptr53drop_in_place$LT$alloc..vec..Vec$LT$device..A$GT$$GT$17h6490ed6c72e934c5E"(%"std::vec::Vec<A>"* %_1) unnamed_addr #2 personality i32 (i32, i32, i64, %"unwind::libunwind::_Unwind_Exception"*, %"unwind::libunwind::_Unwind_Context"*)* @rust_eh_personality !dbg !1260 {
start:
  %0 = alloca { i8*, i32 }, align 8
  %_1.dbg.spill = alloca %"std::vec::Vec<A>"*, align 8
  %1 = alloca {}, align 1
  store %"std::vec::Vec<A>"* %_1, %"std::vec::Vec<A>"** %_1.dbg.spill, align 8
  call void @llvm.dbg.declare(metadata %"std::vec::Vec<A>"** %_1.dbg.spill, metadata !1280, metadata !DIExpression()), !dbg !1283
; invoke <alloc::vec::Vec<T,A> as core::ops::drop::Drop>::drop
  invoke void @"_ZN70_$LT$alloc..vec..Vec$LT$T$C$A$GT$$u20$as$u20$core..ops..drop..Drop$GT$4drop17h3eea5d301e55c826E"(%"std::vec::Vec<A>"* align 8 dereferenceable(24) %_1)
          to label %bb4 unwind label %cleanup, !dbg !1283

bb1:                                              ; preds = %bb3
  %2 = bitcast { i8*, i32 }* %0 to i8**, !dbg !1283
  %3 = load i8*, i8** %2, align 8, !dbg !1283
  %4 = getelementptr inbounds { i8*, i32 }, { i8*, i32 }* %0, i32 0, i32 1, !dbg !1283
  %5 = load i32, i32* %4, align 8, !dbg !1283
  %6 = insertvalue { i8*, i32 } undef, i8* %3, 0, !dbg !1283
  %7 = insertvalue { i8*, i32 } %6, i32 %5, 1, !dbg !1283
  resume { i8*, i32 } %7, !dbg !1283

bb2:                                              ; preds = %bb4
  ret void, !dbg !1283

bb3:                                              ; preds = %cleanup
  %8 = bitcast %"std::vec::Vec<A>"* %_1 to { i64*, i64 }*, !dbg !1283
; call core::ptr::drop_in_place<alloc::raw_vec::RawVec<device::A>>
  call void @"_ZN4core3ptr60drop_in_place$LT$alloc..raw_vec..RawVec$LT$device..A$GT$$GT$17hf2e80ab3e9e02b53E"({ i64*, i64 }* %8) #13, !dbg !1283
  br label %bb1, !dbg !1283

bb4:                                              ; preds = %start
  %9 = bitcast %"std::vec::Vec<A>"* %_1 to { i64*, i64 }*, !dbg !1283
; call core::ptr::drop_in_place<alloc::raw_vec::RawVec<device::A>>
  call void @"_ZN4core3ptr60drop_in_place$LT$alloc..raw_vec..RawVec$LT$device..A$GT$$GT$17hf2e80ab3e9e02b53E"({ i64*, i64 }* %9), !dbg !1283
  br label %bb2, !dbg !1283

cleanup:                                          ; preds = %start
  %10 = landingpad { i8*, i32 }
          cleanup
  %11 = extractvalue { i8*, i32 } %10, 0
  %12 = extractvalue { i8*, i32 } %10, 1
  %13 = getelementptr inbounds { i8*, i32 }, { i8*, i32 }* %0, i32 0, i32 0
  store i8* %11, i8** %13, align 8
  %14 = getelementptr inbounds { i8*, i32 }, { i8*, i32 }* %0, i32 0, i32 1
  store i32 %12, i32* %14, align 8
  br label %bb3
}

; core::ptr::drop_in_place<core::alloc::layout::LayoutError>
; Function Attrs: inlinehint uwtable
define internal void @"_ZN4core3ptr53drop_in_place$LT$core..alloc..layout..LayoutError$GT$17hc219c2c1ab3434e0E"(%"std::alloc::LayoutError"* %_1) unnamed_addr #0 !dbg !1284 {
start:
  %_1.dbg.spill = alloca %"std::alloc::LayoutError"*, align 8
  %0 = alloca {}, align 1
  store %"std::alloc::LayoutError"* %_1, %"std::alloc::LayoutError"** %_1.dbg.spill, align 8
  call void @llvm.dbg.declare(metadata %"std::alloc::LayoutError"** %_1.dbg.spill, metadata !1289, metadata !DIExpression()), !dbg !1292
  ret void, !dbg !1292
}

; core::ptr::write
; Function Attrs: inlinehint uwtable
define internal void @_ZN4core3ptr5write17h78ef9395be419272E(%A* %dst, %A* noalias nocapture dereferenceable(32) %src) unnamed_addr #0 personality i32 (i32, i32, i64, %"unwind::libunwind::_Unwind_Exception"*, %"unwind::libunwind::_Unwind_Context"*)* @rust_eh_personality !dbg !1293 {
start:
  %0 = alloca { i8*, i32 }, align 8
  %dst.dbg.spill = alloca %A*, align 8
  %_7 = alloca i8, align 1
  store %A* %dst, %A** %dst.dbg.spill, align 8
  call void @llvm.dbg.declare(metadata %A** %dst.dbg.spill, metadata !1297, metadata !DIExpression()), !dbg !1299
  call void @llvm.dbg.declare(metadata %A* %src, metadata !1298, metadata !DIExpression()), !dbg !1300
  store i8 0, i8* %_7, align 1, !dbg !1301
  store i8 1, i8* %_7, align 1, !dbg !1301
  %1 = bitcast %A* %dst to i8*, !dbg !1301
  %2 = bitcast %A* %src to i8*, !dbg !1301
  call void @llvm.memcpy.p0i8.p0i8.i64(i8* align 8 %1, i8* align 8 %2, i64 32, i1 false), !dbg !1301
  br label %bb1, !dbg !1301

bb1:                                              ; preds = %start
  store i8 0, i8* %_7, align 1, !dbg !1302
  ret void, !dbg !1303

bb2:                                              ; preds = %bb3, %bb4
  %3 = bitcast { i8*, i32 }* %0 to i8**, !dbg !1304
  %4 = load i8*, i8** %3, align 8, !dbg !1304
  %5 = getelementptr inbounds { i8*, i32 }, { i8*, i32 }* %0, i32 0, i32 1, !dbg !1304
  %6 = load i32, i32* %5, align 8, !dbg !1304
  %7 = insertvalue { i8*, i32 } undef, i8* %4, 0, !dbg !1304
  %8 = insertvalue { i8*, i32 } %7, i32 %6, 1, !dbg !1304
  resume { i8*, i32 } %8, !dbg !1304

bb3:                                              ; preds = %bb4
; call core::ptr::drop_in_place<device::A>
  call void @"_ZN4core3ptr30drop_in_place$LT$device..A$GT$17hfa444afcc8e0dcaaE"(%A* %src) #13, !dbg !1305
  br label %bb2, !dbg !1305

bb4:                                              ; No predecessors!
  %9 = load i8, i8* %_7, align 1, !dbg !1305, !range !562
  %10 = trunc i8 %9 to i1, !dbg !1305
  br i1 %10, label %bb3, label %bb2, !dbg !1305
}

; core::ptr::write
; Function Attrs: inlinehint uwtable
define internal void @_ZN4core3ptr5write17haa5b6f37c3764e24E(i32* %dst, i32 %0) unnamed_addr #0 personality i32 (i32, i32, i64, %"unwind::libunwind::_Unwind_Exception"*, %"unwind::libunwind::_Unwind_Context"*)* @rust_eh_personality !dbg !1306 {
start:
  %1 = alloca { i8*, i32 }, align 8
  %dst.dbg.spill = alloca i32*, align 8
  %_7 = alloca i8, align 1
  %src = alloca i32, align 4
  store i32 %0, i32* %src, align 4
  store i32* %dst, i32** %dst.dbg.spill, align 8
  call void @llvm.dbg.declare(metadata i32** %dst.dbg.spill, metadata !1310, metadata !DIExpression()), !dbg !1312
  call void @llvm.dbg.declare(metadata i32* %src, metadata !1311, metadata !DIExpression()), !dbg !1313
  store i8 0, i8* %_7, align 1, !dbg !1314
  store i8 1, i8* %_7, align 1, !dbg !1314
  %2 = bitcast i32* %dst to i8*, !dbg !1314
  %3 = bitcast i32* %src to i8*, !dbg !1314
  call void @llvm.memcpy.p0i8.p0i8.i64(i8* align 4 %2, i8* align 4 %3, i64 4, i1 false), !dbg !1314
  br label %bb1, !dbg !1314

bb1:                                              ; preds = %start
  store i8 0, i8* %_7, align 1, !dbg !1315
  ret void, !dbg !1316

bb2:                                              ; preds = %bb3, %bb4
  %4 = bitcast { i8*, i32 }* %1 to i8**, !dbg !1317
  %5 = load i8*, i8** %4, align 8, !dbg !1317
  %6 = getelementptr inbounds { i8*, i32 }, { i8*, i32 }* %1, i32 0, i32 1, !dbg !1317
  %7 = load i32, i32* %6, align 8, !dbg !1317
  %8 = insertvalue { i8*, i32 } undef, i8* %5, 0, !dbg !1317
  %9 = insertvalue { i8*, i32 } %8, i32 %7, 1, !dbg !1317
  resume { i8*, i32 } %9, !dbg !1317

bb3:                                              ; preds = %bb4
  br label %bb2, !dbg !1318

bb4:                                              ; No predecessors!
  %10 = load i8, i8* %_7, align 1, !dbg !1318, !range !562
  %11 = trunc i8 %10 to i1, !dbg !1318
  br i1 %11, label %bb3, label %bb2, !dbg !1318
}

; core::ptr::drop_in_place<alloc::raw_vec::RawVec<device::A>>
; Function Attrs: uwtable
define internal void @"_ZN4core3ptr60drop_in_place$LT$alloc..raw_vec..RawVec$LT$device..A$GT$$GT$17hf2e80ab3e9e02b53E"({ i64*, i64 }* %_1) unnamed_addr #2 !dbg !1319 {
start:
  %_1.dbg.spill = alloca { i64*, i64 }*, align 8
  %0 = alloca {}, align 1
  store { i64*, i64 }* %_1, { i64*, i64 }** %_1.dbg.spill, align 8
  call void @llvm.dbg.declare(metadata { i64*, i64 }** %_1.dbg.spill, metadata !1324, metadata !DIExpression()), !dbg !1327
; call <alloc::raw_vec::RawVec<T,A> as core::ops::drop::Drop>::drop
  call void @"_ZN77_$LT$alloc..raw_vec..RawVec$LT$T$C$A$GT$$u20$as$u20$core..ops..drop..Drop$GT$4drop17hfb14e59867622421E"({ i64*, i64 }* align 8 dereferenceable(16) %_1), !dbg !1327
  br label %bb1, !dbg !1327

bb1:                                              ; preds = %start
  ret void, !dbg !1327
}

; core::ptr::drop_in_place<alloc::boxed::Box<std::io::error::Custom>>
; Function Attrs: uwtable
define internal void @"_ZN4core3ptr68drop_in_place$LT$alloc..boxed..Box$LT$std..io..error..Custom$GT$$GT$17hcbe327ded655ba01E"(%"std::io::error::Custom"** %_1) unnamed_addr #2 personality i32 (i32, i32, i64, %"unwind::libunwind::_Unwind_Exception"*, %"unwind::libunwind::_Unwind_Context"*)* @rust_eh_personality !dbg !1328 {
start:
  %0 = alloca { i8*, i32 }, align 8
  %_1.dbg.spill = alloca %"std::io::error::Custom"**, align 8
  %1 = alloca {}, align 1
  store %"std::io::error::Custom"** %_1, %"std::io::error::Custom"*** %_1.dbg.spill, align 8
  call void @llvm.dbg.declare(metadata %"std::io::error::Custom"*** %_1.dbg.spill, metadata !1333, metadata !DIExpression()), !dbg !1336
  %2 = load %"std::io::error::Custom"*, %"std::io::error::Custom"** %_1, align 8, !dbg !1336, !nonnull !4
; invoke core::ptr::drop_in_place<std::io::error::Custom>
  invoke void @"_ZN4core3ptr43drop_in_place$LT$std..io..error..Custom$GT$17h5e5c7955116cb99fE"(%"std::io::error::Custom"* %2)
          to label %bb3 unwind label %cleanup, !dbg !1336

bb1:                                              ; preds = %bb3
  ret void, !dbg !1336

bb2:                                              ; preds = %bb4
  %3 = bitcast { i8*, i32 }* %0 to i8**, !dbg !1336
  %4 = load i8*, i8** %3, align 8, !dbg !1336
  %5 = getelementptr inbounds { i8*, i32 }, { i8*, i32 }* %0, i32 0, i32 1, !dbg !1336
  %6 = load i32, i32* %5, align 8, !dbg !1336
  %7 = insertvalue { i8*, i32 } undef, i8* %4, 0, !dbg !1336
  %8 = insertvalue { i8*, i32 } %7, i32 %6, 1, !dbg !1336
  resume { i8*, i32 } %8, !dbg !1336

bb3:                                              ; preds = %start
  %9 = bitcast %"std::io::error::Custom"** %_1 to i64**, !dbg !1336
  %10 = load i64*, i64** %9, align 8, !dbg !1336, !nonnull !4
; call alloc::alloc::box_free
  call void @_ZN5alloc5alloc8box_free17h76c3ba425985f82bE(i64* nonnull %10), !dbg !1336
  br label %bb1, !dbg !1336

bb4:                                              ; preds = %cleanup
  %11 = bitcast %"std::io::error::Custom"** %_1 to i64**, !dbg !1336
  %12 = load i64*, i64** %11, align 8, !dbg !1336, !nonnull !4
; call alloc::alloc::box_free
  call void @_ZN5alloc5alloc8box_free17h76c3ba425985f82bE(i64* nonnull %12) #13, !dbg !1336
  br label %bb2, !dbg !1336

cleanup:                                          ; preds = %start
  %13 = landingpad { i8*, i32 }
          cleanup
  %14 = extractvalue { i8*, i32 } %13, 0
  %15 = extractvalue { i8*, i32 } %13, 1
  %16 = getelementptr inbounds { i8*, i32 }, { i8*, i32 }* %0, i32 0, i32 0
  store i8* %14, i8** %16, align 8
  %17 = getelementptr inbounds { i8*, i32 }, { i8*, i32 }* %0, i32 0, i32 1
  store i32 %15, i32* %17, align 8
  br label %bb4
}

; core::ptr::unique::Unique<T>::new_unchecked
; Function Attrs: inlinehint uwtable
define internal nonnull i64* @"_ZN4core3ptr6unique15Unique$LT$T$GT$13new_unchecked17h1486545bd77cda70E"(%A* %ptr) unnamed_addr #0 !dbg !1337 {
start:
  %ptr.dbg.spill = alloca %A*, align 8
  %_5 = alloca %"std::marker::PhantomData<A>", align 1
  %0 = alloca i64*, align 8
  store %A* %ptr, %A** %ptr.dbg.spill, align 8
  call void @llvm.dbg.declare(metadata %A** %ptr.dbg.spill, metadata !1342, metadata !DIExpression()), !dbg !1343
  %1 = bitcast i64** %0 to %A**, !dbg !1344
  store %A* %ptr, %A** %1, align 8, !dbg !1344
  %2 = bitcast i64** %0 to %"std::marker::PhantomData<A>"*, !dbg !1344
  %3 = load i64*, i64** %0, align 8, !dbg !1345, !nonnull !4
  ret i64* %3, !dbg !1345
}

; core::ptr::unique::Unique<T>::new_unchecked
; Function Attrs: inlinehint uwtable
define internal nonnull i8* @"_ZN4core3ptr6unique15Unique$LT$T$GT$13new_unchecked17h95ffd745f477ee30E"(i8* %ptr) unnamed_addr #0 !dbg !1346 {
start:
  %ptr.dbg.spill = alloca i8*, align 8
  %_5 = alloca %"std::marker::PhantomData<u8>", align 1
  %0 = alloca i8*, align 8
  store i8* %ptr, i8** %ptr.dbg.spill, align 8
  call void @llvm.dbg.declare(metadata i8** %ptr.dbg.spill, metadata !1350, metadata !DIExpression()), !dbg !1351
  store i8* %ptr, i8** %0, align 8, !dbg !1352
  %1 = bitcast i8** %0 to %"std::marker::PhantomData<u8>"*, !dbg !1352
  %2 = load i8*, i8** %0, align 8, !dbg !1353, !nonnull !4
  ret i8* %2, !dbg !1353
}

; core::ptr::unique::Unique<T>::cast
; Function Attrs: inlinehint uwtable
define internal nonnull i8* @"_ZN4core3ptr6unique15Unique$LT$T$GT$4cast17h511fc3671d47da2dE"(i8* nonnull %self.0, i64* noalias readonly align 8 dereferenceable(24) %self.1) unnamed_addr #0 !dbg !1354 {
start:
  %self.dbg.spill = alloca { i8*, i64* }, align 8
  %0 = getelementptr inbounds { i8*, i64* }, { i8*, i64* }* %self.dbg.spill, i32 0, i32 0
  store i8* %self.0, i8** %0, align 8
  %1 = getelementptr inbounds { i8*, i64* }, { i8*, i64* }* %self.dbg.spill, i32 0, i32 1
  store i64* %self.1, i64** %1, align 8
  call void @llvm.dbg.declare(metadata { i8*, i64* }* %self.dbg.spill, metadata !1368, metadata !DIExpression()), !dbg !1371
; call core::ptr::unique::Unique<T>::as_ptr
  %2 = call { {}*, [3 x i64]* } @"_ZN4core3ptr6unique15Unique$LT$T$GT$6as_ptr17h43aeb0155d285fcaE"(i8* nonnull %self.0, i64* noalias readonly align 8 dereferenceable(24) %self.1), !dbg !1372
  %_3.0 = extractvalue { {}*, [3 x i64]* } %2, 0, !dbg !1372
  %_3.1 = extractvalue { {}*, [3 x i64]* } %2, 1, !dbg !1372
  br label %bb1, !dbg !1372

bb1:                                              ; preds = %start
  %_2 = bitcast {}* %_3.0 to i8*, !dbg !1372
; call core::ptr::unique::Unique<T>::new_unchecked
  %3 = call nonnull i8* @"_ZN4core3ptr6unique15Unique$LT$T$GT$13new_unchecked17h95ffd745f477ee30E"(i8* %_2), !dbg !1373
  br label %bb2, !dbg !1373

bb2:                                              ; preds = %bb1
  ret i8* %3, !dbg !1374
}

; core::ptr::unique::Unique<T>::cast
; Function Attrs: inlinehint uwtable
define internal nonnull i8* @"_ZN4core3ptr6unique15Unique$LT$T$GT$4cast17h7d05fee7c037d329E"(i8* nonnull %self) unnamed_addr #0 !dbg !1375 {
start:
  %self.dbg.spill = alloca i8*, align 8
  store i8* %self, i8** %self.dbg.spill, align 8
  call void @llvm.dbg.declare(metadata i8** %self.dbg.spill, metadata !1379, metadata !DIExpression()), !dbg !1381
; call core::ptr::unique::Unique<T>::as_ptr
  %_3 = call i8* @"_ZN4core3ptr6unique15Unique$LT$T$GT$6as_ptr17h852246297f600699E"(i8* nonnull %self), !dbg !1382
  br label %bb1, !dbg !1382

bb1:                                              ; preds = %start
; call core::ptr::unique::Unique<T>::new_unchecked
  %0 = call nonnull i8* @"_ZN4core3ptr6unique15Unique$LT$T$GT$13new_unchecked17h95ffd745f477ee30E"(i8* %_3), !dbg !1383
  br label %bb2, !dbg !1383

bb2:                                              ; preds = %bb1
  ret i8* %0, !dbg !1384
}

; core::ptr::unique::Unique<T>::cast
; Function Attrs: inlinehint uwtable
define internal nonnull i8* @"_ZN4core3ptr6unique15Unique$LT$T$GT$4cast17h943894c0105aa299E"(i64* nonnull %self) unnamed_addr #0 !dbg !1385 {
start:
  %self.dbg.spill = alloca i64*, align 8
  store i64* %self, i64** %self.dbg.spill, align 8
  call void @llvm.dbg.declare(metadata i64** %self.dbg.spill, metadata !1389, metadata !DIExpression()), !dbg !1391
; call core::ptr::unique::Unique<T>::as_ptr
  %_3 = call %A* @"_ZN4core3ptr6unique15Unique$LT$T$GT$6as_ptr17h986cf96669282151E"(i64* nonnull %self), !dbg !1392
  br label %bb1, !dbg !1392

bb1:                                              ; preds = %start
  %_2 = bitcast %A* %_3 to i8*, !dbg !1392
; call core::ptr::unique::Unique<T>::new_unchecked
  %0 = call nonnull i8* @"_ZN4core3ptr6unique15Unique$LT$T$GT$13new_unchecked17h95ffd745f477ee30E"(i8* %_2), !dbg !1393
  br label %bb2, !dbg !1393

bb2:                                              ; preds = %bb1
  ret i8* %0, !dbg !1394
}

; core::ptr::unique::Unique<T>::cast
; Function Attrs: inlinehint uwtable
define internal nonnull i8* @"_ZN4core3ptr6unique15Unique$LT$T$GT$4cast17hc4ee136c45ef26a4E"(i64* nonnull %self) unnamed_addr #0 !dbg !1395 {
start:
  %self.dbg.spill = alloca i64*, align 8
  store i64* %self, i64** %self.dbg.spill, align 8
  call void @llvm.dbg.declare(metadata i64** %self.dbg.spill, metadata !1405, metadata !DIExpression()), !dbg !1407
; call core::ptr::unique::Unique<T>::as_ptr
  %_3 = call %"std::io::error::Custom"* @"_ZN4core3ptr6unique15Unique$LT$T$GT$6as_ptr17h58f3dd689aeb2408E"(i64* nonnull %self), !dbg !1408
  br label %bb1, !dbg !1408

bb1:                                              ; preds = %start
  %_2 = bitcast %"std::io::error::Custom"* %_3 to i8*, !dbg !1408
; call core::ptr::unique::Unique<T>::new_unchecked
  %0 = call nonnull i8* @"_ZN4core3ptr6unique15Unique$LT$T$GT$13new_unchecked17h95ffd745f477ee30E"(i8* %_2), !dbg !1409
  br label %bb2, !dbg !1409

bb2:                                              ; preds = %bb1
  ret i8* %0, !dbg !1410
}

; core::ptr::unique::Unique<T>::as_ptr
; Function Attrs: inlinehint uwtable
define internal { {}*, [3 x i64]* } @"_ZN4core3ptr6unique15Unique$LT$T$GT$6as_ptr17h43aeb0155d285fcaE"(i8* nonnull %self.0, i64* noalias readonly align 8 dereferenceable(24) %self.1) unnamed_addr #0 !dbg !1411 {
start:
  %self.dbg.spill = alloca { i8*, i64* }, align 8
  %0 = getelementptr inbounds { i8*, i64* }, { i8*, i64* }* %self.dbg.spill, i32 0, i32 0
  store i8* %self.0, i8** %0, align 8
  %1 = getelementptr inbounds { i8*, i64* }, { i8*, i64* }* %self.dbg.spill, i32 0, i32 1
  store i64* %self.1, i64** %1, align 8
  call void @llvm.dbg.declare(metadata { i8*, i64* }* %self.dbg.spill, metadata !1419, metadata !DIExpression()), !dbg !1420
  %_2.0 = bitcast i8* %self.0 to {}*, !dbg !1421
  %_2.1 = bitcast i64* %self.1 to [3 x i64]*, !dbg !1421
  %2 = insertvalue { {}*, [3 x i64]* } undef, {}* %_2.0, 0, !dbg !1422
  %3 = insertvalue { {}*, [3 x i64]* } %2, [3 x i64]* %_2.1, 1, !dbg !1422
  ret { {}*, [3 x i64]* } %3, !dbg !1422
}

; core::ptr::unique::Unique<T>::as_ptr
; Function Attrs: inlinehint uwtable
define internal %"std::io::error::Custom"* @"_ZN4core3ptr6unique15Unique$LT$T$GT$6as_ptr17h58f3dd689aeb2408E"(i64* nonnull %self) unnamed_addr #0 !dbg !1423 {
start:
  %self.dbg.spill = alloca i64*, align 8
  store i64* %self, i64** %self.dbg.spill, align 8
  call void @llvm.dbg.declare(metadata i64** %self.dbg.spill, metadata !1427, metadata !DIExpression()), !dbg !1428
  %_2 = bitcast i64* %self to %"std::io::error::Custom"*, !dbg !1429
  ret %"std::io::error::Custom"* %_2, !dbg !1430
}

; core::ptr::unique::Unique<T>::as_ptr
; Function Attrs: inlinehint uwtable
define internal i8* @"_ZN4core3ptr6unique15Unique$LT$T$GT$6as_ptr17h852246297f600699E"(i8* nonnull %self) unnamed_addr #0 !dbg !1431 {
start:
  %self.dbg.spill = alloca i8*, align 8
  store i8* %self, i8** %self.dbg.spill, align 8
  call void @llvm.dbg.declare(metadata i8** %self.dbg.spill, metadata !1435, metadata !DIExpression()), !dbg !1436
  ret i8* %self, !dbg !1437
}

; core::ptr::unique::Unique<T>::as_ptr
; Function Attrs: inlinehint uwtable
define internal %A* @"_ZN4core3ptr6unique15Unique$LT$T$GT$6as_ptr17h986cf96669282151E"(i64* nonnull %self) unnamed_addr #0 !dbg !1438 {
start:
  %self.dbg.spill = alloca i64*, align 8
  store i64* %self, i64** %self.dbg.spill, align 8
  call void @llvm.dbg.declare(metadata i64** %self.dbg.spill, metadata !1442, metadata !DIExpression()), !dbg !1443
  %_2 = bitcast i64* %self to %A*, !dbg !1444
  ret %A* %_2, !dbg !1445
}

; core::ptr::unique::Unique<T>::as_ref
; Function Attrs: inlinehint uwtable
define internal align 8 dereferenceable(24) %"std::io::error::Custom"* @"_ZN4core3ptr6unique15Unique$LT$T$GT$6as_ref17h60623e2f0d3cc5dbE"(i64** noalias readonly align 8 dereferenceable(8) %self) unnamed_addr #0 !dbg !1446 {
start:
  %self.dbg.spill = alloca i64**, align 8
  store i64** %self, i64*** %self.dbg.spill, align 8
  call void @llvm.dbg.declare(metadata i64*** %self.dbg.spill, metadata !1452, metadata !DIExpression()), !dbg !1453
  %_3 = load i64*, i64** %self, align 8, !dbg !1454, !nonnull !4
; call core::ptr::unique::Unique<T>::as_ptr
  %_2 = call %"std::io::error::Custom"* @"_ZN4core3ptr6unique15Unique$LT$T$GT$6as_ptr17h58f3dd689aeb2408E"(i64* nonnull %_3), !dbg !1454
  br label %bb1, !dbg !1454

bb1:                                              ; preds = %start
  ret %"std::io::error::Custom"* %_2, !dbg !1455
}

; core::ptr::unique::Unique<T>::as_ref
; Function Attrs: inlinehint uwtable
define internal { {}*, [3 x i64]* } @"_ZN4core3ptr6unique15Unique$LT$T$GT$6as_ref17he637914d84843ce3E"({ i8*, i64* }* noalias readonly align 8 dereferenceable(16) %self) unnamed_addr #0 !dbg !1456 {
start:
  %self.dbg.spill = alloca { i8*, i64* }*, align 8
  store { i8*, i64* }* %self, { i8*, i64* }** %self.dbg.spill, align 8
  call void @llvm.dbg.declare(metadata { i8*, i64* }** %self.dbg.spill, metadata !1465, metadata !DIExpression()), !dbg !1466
  %0 = getelementptr inbounds { i8*, i64* }, { i8*, i64* }* %self, i32 0, i32 0, !dbg !1467
  %_3.0 = load i8*, i8** %0, align 8, !dbg !1467, !nonnull !4
  %1 = getelementptr inbounds { i8*, i64* }, { i8*, i64* }* %self, i32 0, i32 1, !dbg !1467
  %_3.1 = load i64*, i64** %1, align 8, !dbg !1467, !nonnull !4
; call core::ptr::unique::Unique<T>::as_ptr
  %2 = call { {}*, [3 x i64]* } @"_ZN4core3ptr6unique15Unique$LT$T$GT$6as_ptr17h43aeb0155d285fcaE"(i8* nonnull %_3.0, i64* noalias readonly align 8 dereferenceable(24) %_3.1), !dbg !1467
  %_2.0 = extractvalue { {}*, [3 x i64]* } %2, 0, !dbg !1467
  %_2.1 = extractvalue { {}*, [3 x i64]* } %2, 1, !dbg !1467
  br label %bb1, !dbg !1467

bb1:                                              ; preds = %start
  %3 = insertvalue { {}*, [3 x i64]* } undef, {}* %_2.0, 0, !dbg !1468
  %4 = insertvalue { {}*, [3 x i64]* } %3, [3 x i64]* %_2.1, 1, !dbg !1468
  ret { {}*, [3 x i64]* } %4, !dbg !1468
}

; core::ptr::mut_ptr::<impl *mut T>::write_bytes
; Function Attrs: inlinehint uwtable
define internal void @"_ZN4core3ptr7mut_ptr31_$LT$impl$u20$$BP$mut$u20$T$GT$11write_bytes17haeaa6f03498b790eE"(i8* %self, i8 %val, i64 %count) unnamed_addr #0 !dbg !1469 {
start:
  %count.dbg.spill = alloca i64, align 8
  %val.dbg.spill = alloca i8, align 1
  %self.dbg.spill = alloca i8*, align 8
  store i8* %self, i8** %self.dbg.spill, align 8
  call void @llvm.dbg.declare(metadata i8** %self.dbg.spill, metadata !1474, metadata !DIExpression()), !dbg !1477
  store i8 %val, i8* %val.dbg.spill, align 1
  call void @llvm.dbg.declare(metadata i8* %val.dbg.spill, metadata !1475, metadata !DIExpression()), !dbg !1478
  store i64 %count, i64* %count.dbg.spill, align 8
  call void @llvm.dbg.declare(metadata i64* %count.dbg.spill, metadata !1476, metadata !DIExpression()), !dbg !1479
; call core::intrinsics::write_bytes
  call void @_ZN4core10intrinsics11write_bytes17h2ca61eb1d3d86b13E(i8* %self, i8 %val, i64 %count), !dbg !1480
  br label %bb1, !dbg !1480

bb1:                                              ; preds = %start
  ret void, !dbg !1481
}

; core::ptr::mut_ptr::<impl *mut T>::guaranteed_eq
; Function Attrs: inlinehint uwtable
define internal zeroext i1 @"_ZN4core3ptr7mut_ptr31_$LT$impl$u20$$BP$mut$u20$T$GT$13guaranteed_eq17hdba4ab071934a004E"(i8* %self, i8* %other) unnamed_addr #0 !dbg !1482 {
start:
  %0 = alloca i8, align 1
  %other.dbg.spill = alloca i8*, align 8
  %self.dbg.spill = alloca i8*, align 8
  store i8* %self, i8** %self.dbg.spill, align 8
  call void @llvm.dbg.declare(metadata i8** %self.dbg.spill, metadata !1486, metadata !DIExpression()), !dbg !1488
  store i8* %other, i8** %other.dbg.spill, align 8
  call void @llvm.dbg.declare(metadata i8** %other.dbg.spill, metadata !1487, metadata !DIExpression()), !dbg !1489
  %1 = icmp eq i8* %self, %other, !dbg !1490
  %2 = zext i1 %1 to i8, !dbg !1490
  store i8 %2, i8* %0, align 1, !dbg !1490
  %3 = load i8, i8* %0, align 1, !dbg !1490, !range !562
  %4 = trunc i8 %3 to i1, !dbg !1490
  br label %bb1, !dbg !1490

bb1:                                              ; preds = %start
  ret i1 %4, !dbg !1491
}

; core::ptr::mut_ptr::<impl *mut T>::add
; Function Attrs: inlinehint uwtable
define internal %A* @"_ZN4core3ptr7mut_ptr31_$LT$impl$u20$$BP$mut$u20$T$GT$3add17h2e49b3e30d4db429E"(%A* %self, i64 %count) unnamed_addr #0 !dbg !1492 {
start:
  %count.dbg.spill = alloca i64, align 8
  %self.dbg.spill = alloca %A*, align 8
  store %A* %self, %A** %self.dbg.spill, align 8
  call void @llvm.dbg.declare(metadata %A** %self.dbg.spill, metadata !1496, metadata !DIExpression()), !dbg !1498
  store i64 %count, i64* %count.dbg.spill, align 8
  call void @llvm.dbg.declare(metadata i64* %count.dbg.spill, metadata !1497, metadata !DIExpression()), !dbg !1499
; call core::ptr::mut_ptr::<impl *mut T>::offset
  %0 = call %A* @"_ZN4core3ptr7mut_ptr31_$LT$impl$u20$$BP$mut$u20$T$GT$6offset17hc1739bc61370eb61E"(%A* %self, i64 %count), !dbg !1500
  br label %bb1, !dbg !1500

bb1:                                              ; preds = %start
  ret %A* %0, !dbg !1501
}

; core::ptr::mut_ptr::<impl *mut T>::add
; Function Attrs: inlinehint uwtable
define internal i8* @"_ZN4core3ptr7mut_ptr31_$LT$impl$u20$$BP$mut$u20$T$GT$3add17hb6f504fcb2bf99e1E"(i8* %self, i64 %count) unnamed_addr #0 !dbg !1502 {
start:
  %count.dbg.spill = alloca i64, align 8
  %self.dbg.spill = alloca i8*, align 8
  store i8* %self, i8** %self.dbg.spill, align 8
  call void @llvm.dbg.declare(metadata i8** %self.dbg.spill, metadata !1506, metadata !DIExpression()), !dbg !1508
  store i64 %count, i64* %count.dbg.spill, align 8
  call void @llvm.dbg.declare(metadata i64* %count.dbg.spill, metadata !1507, metadata !DIExpression()), !dbg !1509
; call core::ptr::mut_ptr::<impl *mut T>::offset
  %0 = call i8* @"_ZN4core3ptr7mut_ptr31_$LT$impl$u20$$BP$mut$u20$T$GT$6offset17h4009473f6db2d5f3E"(i8* %self, i64 %count), !dbg !1510
  br label %bb1, !dbg !1510

bb1:                                              ; preds = %start
  ret i8* %0, !dbg !1511
}

; core::ptr::mut_ptr::<impl *mut T>::offset
; Function Attrs: inlinehint uwtable
define internal i8* @"_ZN4core3ptr7mut_ptr31_$LT$impl$u20$$BP$mut$u20$T$GT$6offset17h4009473f6db2d5f3E"(i8* %self, i64 %count) unnamed_addr #0 !dbg !1512 {
start:
  %0 = alloca i8*, align 8
  %count.dbg.spill = alloca i64, align 8
  %self.dbg.spill = alloca i8*, align 8
  store i8* %self, i8** %self.dbg.spill, align 8
  call void @llvm.dbg.declare(metadata i8** %self.dbg.spill, metadata !1516, metadata !DIExpression()), !dbg !1518
  store i64 %count, i64* %count.dbg.spill, align 8
  call void @llvm.dbg.declare(metadata i64* %count.dbg.spill, metadata !1517, metadata !DIExpression()), !dbg !1519
  %1 = getelementptr inbounds i8, i8* %self, i64 %count, !dbg !1520
  store i8* %1, i8** %0, align 8, !dbg !1520
  %_3 = load i8*, i8** %0, align 8, !dbg !1520
  br label %bb1, !dbg !1520

bb1:                                              ; preds = %start
  ret i8* %_3, !dbg !1521
}

; core::ptr::mut_ptr::<impl *mut T>::offset
; Function Attrs: inlinehint uwtable
define internal %A* @"_ZN4core3ptr7mut_ptr31_$LT$impl$u20$$BP$mut$u20$T$GT$6offset17hc1739bc61370eb61E"(%A* %self, i64 %count) unnamed_addr #0 !dbg !1522 {
start:
  %0 = alloca %A*, align 8
  %count.dbg.spill = alloca i64, align 8
  %self.dbg.spill = alloca %A*, align 8
  store %A* %self, %A** %self.dbg.spill, align 8
  call void @llvm.dbg.declare(metadata %A** %self.dbg.spill, metadata !1526, metadata !DIExpression()), !dbg !1528
  store i64 %count, i64* %count.dbg.spill, align 8
  call void @llvm.dbg.declare(metadata i64* %count.dbg.spill, metadata !1527, metadata !DIExpression()), !dbg !1529
  %1 = getelementptr inbounds %A, %A* %self, i64 %count, !dbg !1530
  store %A* %1, %A** %0, align 8, !dbg !1530
  %_3 = load %A*, %A** %0, align 8, !dbg !1530
  br label %bb1, !dbg !1530

bb1:                                              ; preds = %start
  ret %A* %_3, !dbg !1531
}

; core::ptr::mut_ptr::<impl *mut T>::is_null
; Function Attrs: inlinehint uwtable
define internal zeroext i1 @"_ZN4core3ptr7mut_ptr31_$LT$impl$u20$$BP$mut$u20$T$GT$7is_null17ha2ed391a4aedb289E"(i8* %self) unnamed_addr #0 !dbg !1532 {
start:
  %self.dbg.spill = alloca i8*, align 8
  store i8* %self, i8** %self.dbg.spill, align 8
  call void @llvm.dbg.declare(metadata i8** %self.dbg.spill, metadata !1536, metadata !DIExpression()), !dbg !1537
  br label %bb1, !dbg !1538

bb1:                                              ; preds = %start
; call core::ptr::mut_ptr::<impl *mut T>::guaranteed_eq
  %0 = call zeroext i1 @"_ZN4core3ptr7mut_ptr31_$LT$impl$u20$$BP$mut$u20$T$GT$13guaranteed_eq17hdba4ab071934a004E"(i8* %self, i8* null), !dbg !1539
  br label %bb2, !dbg !1539

bb2:                                              ; preds = %bb1
  ret i1 %0, !dbg !1540
}

; core::ptr::mut_ptr::<impl *mut T>::is_null
; Function Attrs: inlinehint uwtable
define internal zeroext i1 @"_ZN4core3ptr7mut_ptr31_$LT$impl$u20$$BP$mut$u20$T$GT$7is_null17hb168de6bbea73efaE"(%A* %self) unnamed_addr #0 !dbg !1541 {
start:
  %self.dbg.spill = alloca %A*, align 8
  store %A* %self, %A** %self.dbg.spill, align 8
  call void @llvm.dbg.declare(metadata %A** %self.dbg.spill, metadata !1545, metadata !DIExpression()), !dbg !1546
  %_2 = bitcast %A* %self to i8*, !dbg !1547
  br label %bb1, !dbg !1548

bb1:                                              ; preds = %start
; call core::ptr::mut_ptr::<impl *mut T>::guaranteed_eq
  %0 = call zeroext i1 @"_ZN4core3ptr7mut_ptr31_$LT$impl$u20$$BP$mut$u20$T$GT$13guaranteed_eq17hdba4ab071934a004E"(i8* %_2, i8* null), !dbg !1547
  br label %bb2, !dbg !1547

bb2:                                              ; preds = %bb1
  ret i1 %0, !dbg !1549
}

; core::ptr::mut_ptr::<impl *mut [T]>::as_mut_ptr
; Function Attrs: inlinehint uwtable
define internal i8* @"_ZN4core3ptr7mut_ptr41_$LT$impl$u20$$BP$mut$u20$$u5b$T$u5d$$GT$10as_mut_ptr17hedeca020eac338cfE"([0 x i8]* %self.0, i64 %self.1) unnamed_addr #0 !dbg !1550 {
start:
  %self.dbg.spill = alloca { [0 x i8]*, i64 }, align 8
  %0 = getelementptr inbounds { [0 x i8]*, i64 }, { [0 x i8]*, i64 }* %self.dbg.spill, i32 0, i32 0
  store [0 x i8]* %self.0, [0 x i8]** %0, align 8
  %1 = getelementptr inbounds { [0 x i8]*, i64 }, { [0 x i8]*, i64 }* %self.dbg.spill, i32 0, i32 1
  store i64 %self.1, i64* %1, align 8
  call void @llvm.dbg.declare(metadata { [0 x i8]*, i64 }* %self.dbg.spill, metadata !1554, metadata !DIExpression()), !dbg !1555
  %2 = bitcast [0 x i8]* %self.0 to i8*, !dbg !1556
  ret i8* %2, !dbg !1557
}

; core::ptr::mut_ptr::<impl *mut [T]>::len
; Function Attrs: inlinehint uwtable
define internal i64 @"_ZN4core3ptr7mut_ptr41_$LT$impl$u20$$BP$mut$u20$$u5b$T$u5d$$GT$3len17hc4351c4e90c267afE"([0 x i8]* %self.0, i64 %self.1) unnamed_addr #0 !dbg !1558 {
start:
  %self.dbg.spill = alloca { [0 x i8]*, i64 }, align 8
  %_3 = alloca %"std::ptr::Repr<u8>", align 8
  %0 = getelementptr inbounds { [0 x i8]*, i64 }, { [0 x i8]*, i64 }* %self.dbg.spill, i32 0, i32 0
  store [0 x i8]* %self.0, [0 x i8]** %0, align 8
  %1 = getelementptr inbounds { [0 x i8]*, i64 }, { [0 x i8]*, i64 }* %self.dbg.spill, i32 0, i32 1
  store i64 %self.1, i64* %1, align 8
  call void @llvm.dbg.declare(metadata { [0 x i8]*, i64 }* %self.dbg.spill, metadata !1562, metadata !DIExpression()), !dbg !1563
  %2 = bitcast %"std::ptr::Repr<u8>"* %_3 to { [0 x i8]*, i64 }*, !dbg !1564
  %3 = getelementptr inbounds { [0 x i8]*, i64 }, { [0 x i8]*, i64 }* %2, i32 0, i32 0, !dbg !1564
  store [0 x i8]* %self.0, [0 x i8]** %3, align 8, !dbg !1564
  %4 = getelementptr inbounds { [0 x i8]*, i64 }, { [0 x i8]*, i64 }* %2, i32 0, i32 1, !dbg !1564
  store i64 %self.1, i64* %4, align 8, !dbg !1564
  %5 = bitcast %"std::ptr::Repr<u8>"* %_3 to { i8*, i64 }*, !dbg !1564
  %6 = getelementptr inbounds { i8*, i64 }, { i8*, i64 }* %5, i32 0, i32 0, !dbg !1564
  %_2.0 = load i8*, i8** %6, align 8, !dbg !1564
  %7 = getelementptr inbounds { i8*, i64 }, { i8*, i64 }* %5, i32 0, i32 1, !dbg !1564
  %_2.1 = load i64, i64* %7, align 8, !dbg !1564
  ret i64 %_2.1, !dbg !1565
}

; core::ptr::drop_in_place<std::rt::lang_start<()>::{{closure}}>
; Function Attrs: inlinehint uwtable
define internal void @"_ZN4core3ptr85drop_in_place$LT$std..rt..lang_start$LT$$LP$$RP$$GT$..$u7b$$u7b$closure$u7d$$u7d$$GT$17he8e65d4c2feafb07E"(i64** %_1) unnamed_addr #0 !dbg !1566 {
start:
  %_1.dbg.spill = alloca i64**, align 8
  %0 = alloca {}, align 1
  store i64** %_1, i64*** %_1.dbg.spill, align 8
  call void @llvm.dbg.declare(metadata i64*** %_1.dbg.spill, metadata !1570, metadata !DIExpression()), !dbg !1573
  ret void, !dbg !1573
}

; core::ptr::non_null::NonNull<T>::new_unchecked
; Function Attrs: inlinehint uwtable
define internal { i8*, i64 } @"_ZN4core3ptr8non_null16NonNull$LT$T$GT$13new_unchecked17h057504fd51c64edcE"([0 x i8]* %ptr.0, i64 %ptr.1) unnamed_addr #0 !dbg !1574 {
start:
  %ptr.dbg.spill = alloca { [0 x i8]*, i64 }, align 8
  %0 = alloca { i8*, i64 }, align 8
  %1 = getelementptr inbounds { [0 x i8]*, i64 }, { [0 x i8]*, i64 }* %ptr.dbg.spill, i32 0, i32 0
  store [0 x i8]* %ptr.0, [0 x i8]** %1, align 8
  %2 = getelementptr inbounds { [0 x i8]*, i64 }, { [0 x i8]*, i64 }* %ptr.dbg.spill, i32 0, i32 1
  store i64 %ptr.1, i64* %2, align 8
  call void @llvm.dbg.declare(metadata { [0 x i8]*, i64 }* %ptr.dbg.spill, metadata !1587, metadata !DIExpression()), !dbg !1588
  %3 = bitcast { i8*, i64 }* %0 to { [0 x i8]*, i64 }*, !dbg !1589
  %4 = getelementptr inbounds { [0 x i8]*, i64 }, { [0 x i8]*, i64 }* %3, i32 0, i32 0, !dbg !1589
  store [0 x i8]* %ptr.0, [0 x i8]** %4, align 8, !dbg !1589
  %5 = getelementptr inbounds { [0 x i8]*, i64 }, { [0 x i8]*, i64 }* %3, i32 0, i32 1, !dbg !1589
  store i64 %ptr.1, i64* %5, align 8, !dbg !1589
  %6 = getelementptr inbounds { i8*, i64 }, { i8*, i64 }* %0, i32 0, i32 0, !dbg !1590
  %7 = load i8*, i8** %6, align 8, !dbg !1590, !nonnull !4
  %8 = getelementptr inbounds { i8*, i64 }, { i8*, i64 }* %0, i32 0, i32 1, !dbg !1590
  %9 = load i64, i64* %8, align 8, !dbg !1590
  %10 = insertvalue { i8*, i64 } undef, i8* %7, 0, !dbg !1590
  %11 = insertvalue { i8*, i64 } %10, i64 %9, 1, !dbg !1590
  ret { i8*, i64 } %11, !dbg !1590
}

; core::ptr::non_null::NonNull<T>::new_unchecked
; Function Attrs: inlinehint uwtable
define internal nonnull i8* @"_ZN4core3ptr8non_null16NonNull$LT$T$GT$13new_unchecked17h697f17f1b0ea219cE"(i8* %ptr) unnamed_addr #0 !dbg !1591 {
start:
  %ptr.dbg.spill = alloca i8*, align 8
  %0 = alloca i8*, align 8
  store i8* %ptr, i8** %ptr.dbg.spill, align 8
  call void @llvm.dbg.declare(metadata i8** %ptr.dbg.spill, metadata !1595, metadata !DIExpression()), !dbg !1596
  store i8* %ptr, i8** %0, align 8, !dbg !1597
  %1 = load i8*, i8** %0, align 8, !dbg !1598, !nonnull !4
  ret i8* %1, !dbg !1598
}

; core::ptr::non_null::NonNull<T>::new_unchecked
; Function Attrs: inlinehint uwtable
define internal nonnull i64* @"_ZN4core3ptr8non_null16NonNull$LT$T$GT$13new_unchecked17haa91124a932e92f5E"(%A* %ptr) unnamed_addr #0 !dbg !1599 {
start:
  %ptr.dbg.spill = alloca %A*, align 8
  %0 = alloca i64*, align 8
  store %A* %ptr, %A** %ptr.dbg.spill, align 8
  call void @llvm.dbg.declare(metadata %A** %ptr.dbg.spill, metadata !1606, metadata !DIExpression()), !dbg !1607
  %1 = bitcast i64** %0 to %A**, !dbg !1608
  store %A* %ptr, %A** %1, align 8, !dbg !1608
  %2 = load i64*, i64** %0, align 8, !dbg !1609, !nonnull !4
  ret i64* %2, !dbg !1609
}

; core::ptr::non_null::NonNull<T>::new
; Function Attrs: inlinehint uwtable
define internal i8* @"_ZN4core3ptr8non_null16NonNull$LT$T$GT$3new17hf63766596984c7e7E"(i8* %ptr) unnamed_addr #0 !dbg !1610 {
start:
  %ptr.dbg.spill = alloca i8*, align 8
  %0 = alloca i8*, align 8
  store i8* %ptr, i8** %ptr.dbg.spill, align 8
  call void @llvm.dbg.declare(metadata i8** %ptr.dbg.spill, metadata !1626, metadata !DIExpression()), !dbg !1627
; call core::ptr::mut_ptr::<impl *mut T>::is_null
  %_3 = call zeroext i1 @"_ZN4core3ptr7mut_ptr31_$LT$impl$u20$$BP$mut$u20$T$GT$7is_null17ha2ed391a4aedb289E"(i8* %ptr), !dbg !1628
  br label %bb1, !dbg !1628

bb1:                                              ; preds = %start
  %_2 = xor i1 %_3, true, !dbg !1629
  br i1 %_2, label %bb2, label %bb3, !dbg !1630

bb2:                                              ; preds = %bb1
; call core::ptr::non_null::NonNull<T>::new_unchecked
  %_5 = call nonnull i8* @"_ZN4core3ptr8non_null16NonNull$LT$T$GT$13new_unchecked17h697f17f1b0ea219cE"(i8* %ptr), !dbg !1631
  br label %bb4, !dbg !1631

bb3:                                              ; preds = %bb1
  %1 = bitcast i8** %0 to {}**, !dbg !1632
  store {}* null, {}** %1, align 8, !dbg !1632
  br label %bb5, !dbg !1630

bb4:                                              ; preds = %bb2
  store i8* %_5, i8** %0, align 8, !dbg !1633
  br label %bb5, !dbg !1630

bb5:                                              ; preds = %bb3, %bb4
  %2 = load i8*, i8** %0, align 8, !dbg !1634
  ret i8* %2, !dbg !1634
}

; core::ptr::non_null::NonNull<T>::cast
; Function Attrs: inlinehint uwtable
define internal nonnull i64* @"_ZN4core3ptr8non_null16NonNull$LT$T$GT$4cast17hd2154bf226ed18fbE"(i8* nonnull %self.0, i64 %self.1) unnamed_addr #0 !dbg !1635 {
start:
  %self.dbg.spill = alloca { i8*, i64 }, align 8
  %0 = getelementptr inbounds { i8*, i64 }, { i8*, i64 }* %self.dbg.spill, i32 0, i32 0
  store i8* %self.0, i8** %0, align 8
  %1 = getelementptr inbounds { i8*, i64 }, { i8*, i64 }* %self.dbg.spill, i32 0, i32 1
  store i64 %self.1, i64* %1, align 8
  call void @llvm.dbg.declare(metadata { i8*, i64 }* %self.dbg.spill, metadata !1639, metadata !DIExpression()), !dbg !1642
; call core::ptr::non_null::NonNull<T>::as_ptr
  %2 = call { [0 x i8]*, i64 } @"_ZN4core3ptr8non_null16NonNull$LT$T$GT$6as_ptr17h4de0eaf57938460dE"(i8* nonnull %self.0, i64 %self.1), !dbg !1643
  %_3.0 = extractvalue { [0 x i8]*, i64 } %2, 0, !dbg !1643
  %_3.1 = extractvalue { [0 x i8]*, i64 } %2, 1, !dbg !1643
  br label %bb1, !dbg !1643

bb1:                                              ; preds = %start
  %_2 = bitcast [0 x i8]* %_3.0 to %A*, !dbg !1643
; call core::ptr::non_null::NonNull<T>::new_unchecked
  %3 = call nonnull i64* @"_ZN4core3ptr8non_null16NonNull$LT$T$GT$13new_unchecked17haa91124a932e92f5E"(%A* %_2), !dbg !1644
  br label %bb2, !dbg !1644

bb2:                                              ; preds = %bb1
  ret i64* %3, !dbg !1645
}

; core::ptr::non_null::NonNull<T>::as_ptr
; Function Attrs: inlinehint uwtable
define internal { [0 x i8]*, i64 } @"_ZN4core3ptr8non_null16NonNull$LT$T$GT$6as_ptr17h4de0eaf57938460dE"(i8* nonnull %self.0, i64 %self.1) unnamed_addr #0 !dbg !1646 {
start:
  %self.dbg.spill = alloca { i8*, i64 }, align 8
  %0 = getelementptr inbounds { i8*, i64 }, { i8*, i64 }* %self.dbg.spill, i32 0, i32 0
  store i8* %self.0, i8** %0, align 8
  %1 = getelementptr inbounds { i8*, i64 }, { i8*, i64 }* %self.dbg.spill, i32 0, i32 1
  store i64 %self.1, i64* %1, align 8
  call void @llvm.dbg.declare(metadata { i8*, i64 }* %self.dbg.spill, metadata !1650, metadata !DIExpression()), !dbg !1651
  %_2.0 = bitcast i8* %self.0 to [0 x i8]*, !dbg !1652
  %2 = insertvalue { [0 x i8]*, i64 } undef, [0 x i8]* %_2.0, 0, !dbg !1653
  %3 = insertvalue { [0 x i8]*, i64 } %2, i64 %self.1, 1, !dbg !1653
  ret { [0 x i8]*, i64 } %3, !dbg !1653
}

; core::ptr::non_null::NonNull<T>::as_ptr
; Function Attrs: inlinehint uwtable
define internal %A* @"_ZN4core3ptr8non_null16NonNull$LT$T$GT$6as_ptr17h596965bccd82e82dE"(i64* nonnull %self) unnamed_addr #0 !dbg !1654 {
start:
  %self.dbg.spill = alloca i64*, align 8
  store i64* %self, i64** %self.dbg.spill, align 8
  call void @llvm.dbg.declare(metadata i64** %self.dbg.spill, metadata !1658, metadata !DIExpression()), !dbg !1659
  %_2 = bitcast i64* %self to %A*, !dbg !1660
  ret %A* %_2, !dbg !1661
}

; core::ptr::non_null::NonNull<T>::as_ptr
; Function Attrs: inlinehint uwtable
define internal i8* @"_ZN4core3ptr8non_null16NonNull$LT$T$GT$6as_ptr17h9431a01f0d44a50fE"(i8* nonnull %self) unnamed_addr #0 !dbg !1662 {
start:
  %self.dbg.spill = alloca i8*, align 8
  store i8* %self, i8** %self.dbg.spill, align 8
  call void @llvm.dbg.declare(metadata i8** %self.dbg.spill, metadata !1666, metadata !DIExpression()), !dbg !1667
  ret i8* %self, !dbg !1668
}

; core::ptr::non_null::NonNull<[T]>::as_mut_ptr
; Function Attrs: inlinehint uwtable
define internal i8* @"_ZN4core3ptr8non_null26NonNull$LT$$u5b$T$u5d$$GT$10as_mut_ptr17h13277e2f2ef31476E"(i8* nonnull %self.0, i64 %self.1) unnamed_addr #0 !dbg !1669 {
start:
  %self.dbg.spill = alloca { i8*, i64 }, align 8
  %0 = getelementptr inbounds { i8*, i64 }, { i8*, i64 }* %self.dbg.spill, i32 0, i32 0
  store i8* %self.0, i8** %0, align 8
  %1 = getelementptr inbounds { i8*, i64 }, { i8*, i64 }* %self.dbg.spill, i32 0, i32 1
  store i64 %self.1, i64* %1, align 8
  call void @llvm.dbg.declare(metadata { i8*, i64 }* %self.dbg.spill, metadata !1673, metadata !DIExpression()), !dbg !1674
; call core::ptr::non_null::NonNull<[T]>::as_non_null_ptr
  %_2 = call nonnull i8* @"_ZN4core3ptr8non_null26NonNull$LT$$u5b$T$u5d$$GT$15as_non_null_ptr17hb6671924a8dedf45E"(i8* nonnull %self.0, i64 %self.1), !dbg !1675
  br label %bb1, !dbg !1675

bb1:                                              ; preds = %start
; call core::ptr::non_null::NonNull<T>::as_ptr
  %2 = call i8* @"_ZN4core3ptr8non_null16NonNull$LT$T$GT$6as_ptr17h9431a01f0d44a50fE"(i8* nonnull %_2), !dbg !1675
  br label %bb2, !dbg !1675

bb2:                                              ; preds = %bb1
  ret i8* %2, !dbg !1676
}

; core::ptr::non_null::NonNull<[T]>::as_non_null_ptr
; Function Attrs: inlinehint uwtable
define internal nonnull i8* @"_ZN4core3ptr8non_null26NonNull$LT$$u5b$T$u5d$$GT$15as_non_null_ptr17hb6671924a8dedf45E"(i8* nonnull %self.0, i64 %self.1) unnamed_addr #0 !dbg !1677 {
start:
  %self.dbg.spill = alloca { i8*, i64 }, align 8
  %0 = getelementptr inbounds { i8*, i64 }, { i8*, i64 }* %self.dbg.spill, i32 0, i32 0
  store i8* %self.0, i8** %0, align 8
  %1 = getelementptr inbounds { i8*, i64 }, { i8*, i64 }* %self.dbg.spill, i32 0, i32 1
  store i64 %self.1, i64* %1, align 8
  call void @llvm.dbg.declare(metadata { i8*, i64 }* %self.dbg.spill, metadata !1681, metadata !DIExpression()), !dbg !1682
; call core::ptr::non_null::NonNull<T>::as_ptr
  %2 = call { [0 x i8]*, i64 } @"_ZN4core3ptr8non_null16NonNull$LT$T$GT$6as_ptr17h4de0eaf57938460dE"(i8* nonnull %self.0, i64 %self.1), !dbg !1683
  %_3.0 = extractvalue { [0 x i8]*, i64 } %2, 0, !dbg !1683
  %_3.1 = extractvalue { [0 x i8]*, i64 } %2, 1, !dbg !1683
  br label %bb1, !dbg !1683

bb1:                                              ; preds = %start
; call core::ptr::mut_ptr::<impl *mut [T]>::as_mut_ptr
  %_2 = call i8* @"_ZN4core3ptr7mut_ptr41_$LT$impl$u20$$BP$mut$u20$$u5b$T$u5d$$GT$10as_mut_ptr17hedeca020eac338cfE"([0 x i8]* %_3.0, i64 %_3.1), !dbg !1683
  br label %bb2, !dbg !1683

bb2:                                              ; preds = %bb1
; call core::ptr::non_null::NonNull<T>::new_unchecked
  %3 = call nonnull i8* @"_ZN4core3ptr8non_null16NonNull$LT$T$GT$13new_unchecked17h697f17f1b0ea219cE"(i8* %_2), !dbg !1684
  br label %bb3, !dbg !1684

bb3:                                              ; preds = %bb2
  ret i8* %3, !dbg !1685
}

; core::ptr::non_null::NonNull<[T]>::slice_from_raw_parts
; Function Attrs: inlinehint uwtable
define internal { i8*, i64 } @"_ZN4core3ptr8non_null26NonNull$LT$$u5b$T$u5d$$GT$20slice_from_raw_parts17h7bc379a1d1fc4ca1E"(i8* nonnull %data, i64 %len) unnamed_addr #0 !dbg !1686 {
start:
  %len.dbg.spill = alloca i64, align 8
  %data.dbg.spill = alloca i8*, align 8
  store i8* %data, i8** %data.dbg.spill, align 8
  call void @llvm.dbg.declare(metadata i8** %data.dbg.spill, metadata !1690, metadata !DIExpression()), !dbg !1692
  store i64 %len, i64* %len.dbg.spill, align 8
  call void @llvm.dbg.declare(metadata i64* %len.dbg.spill, metadata !1691, metadata !DIExpression()), !dbg !1693
; call core::ptr::non_null::NonNull<T>::as_ptr
  %_4 = call i8* @"_ZN4core3ptr8non_null16NonNull$LT$T$GT$6as_ptr17h9431a01f0d44a50fE"(i8* nonnull %data), !dbg !1694
  br label %bb1, !dbg !1694

bb1:                                              ; preds = %start
; call core::ptr::slice_from_raw_parts_mut
  %0 = call { [0 x i8]*, i64 } @_ZN4core3ptr24slice_from_raw_parts_mut17hf70d6c7ec16c922dE(i8* %_4, i64 %len), !dbg !1695
  %_3.0 = extractvalue { [0 x i8]*, i64 } %0, 0, !dbg !1695
  %_3.1 = extractvalue { [0 x i8]*, i64 } %0, 1, !dbg !1695
  br label %bb2, !dbg !1695

bb2:                                              ; preds = %bb1
; call core::ptr::non_null::NonNull<T>::new_unchecked
  %1 = call { i8*, i64 } @"_ZN4core3ptr8non_null16NonNull$LT$T$GT$13new_unchecked17h057504fd51c64edcE"([0 x i8]* %_3.0, i64 %_3.1), !dbg !1696
  %2 = extractvalue { i8*, i64 } %1, 0, !dbg !1696
  %3 = extractvalue { i8*, i64 } %1, 1, !dbg !1696
  br label %bb3, !dbg !1696

bb3:                                              ; preds = %bb2
  %4 = insertvalue { i8*, i64 } undef, i8* %2, 0, !dbg !1697
  %5 = insertvalue { i8*, i64 } %4, i64 %3, 1, !dbg !1697
  ret { i8*, i64 } %5, !dbg !1697
}

; core::ptr::non_null::NonNull<[T]>::len
; Function Attrs: inlinehint uwtable
define internal i64 @"_ZN4core3ptr8non_null26NonNull$LT$$u5b$T$u5d$$GT$3len17h85aa36aa5414fec4E"(i8* nonnull %self.0, i64 %self.1) unnamed_addr #0 !dbg !1698 {
start:
  %self.dbg.spill = alloca { i8*, i64 }, align 8
  %0 = getelementptr inbounds { i8*, i64 }, { i8*, i64 }* %self.dbg.spill, i32 0, i32 0
  store i8* %self.0, i8** %0, align 8
  %1 = getelementptr inbounds { i8*, i64 }, { i8*, i64 }* %self.dbg.spill, i32 0, i32 1
  store i64 %self.1, i64* %1, align 8
  call void @llvm.dbg.declare(metadata { i8*, i64 }* %self.dbg.spill, metadata !1702, metadata !DIExpression()), !dbg !1703
; call core::ptr::non_null::NonNull<T>::as_ptr
  %2 = call { [0 x i8]*, i64 } @"_ZN4core3ptr8non_null16NonNull$LT$T$GT$6as_ptr17h4de0eaf57938460dE"(i8* nonnull %self.0, i64 %self.1), !dbg !1704
  %_2.0 = extractvalue { [0 x i8]*, i64 } %2, 0, !dbg !1704
  %_2.1 = extractvalue { [0 x i8]*, i64 } %2, 1, !dbg !1704
  br label %bb1, !dbg !1704

bb1:                                              ; preds = %start
; call core::ptr::mut_ptr::<impl *mut [T]>::len
  %3 = call i64 @"_ZN4core3ptr7mut_ptr41_$LT$impl$u20$$BP$mut$u20$$u5b$T$u5d$$GT$3len17hc4351c4e90c267afE"([0 x i8]* %_2.0, i64 %_2.1), !dbg !1704
  br label %bb2, !dbg !1704

bb2:                                              ; preds = %bb1
  ret i64 %3, !dbg !1705
}

; core::ptr::drop_in_place<dyn std::error::Error+core::marker::Sync+core::marker::Send>
; Function Attrs: uwtable
define internal void @"_ZN4core3ptr92drop_in_place$LT$dyn$u20$std..error..Error$u2b$core..marker..Sync$u2b$core..marker..Send$GT$17h3ac3d497e39081ebE"({}* %_1.0, [3 x i64]* noalias readonly align 8 dereferenceable(24) %_1.1) unnamed_addr #2 !dbg !1706 {
start:
  %_1.dbg.spill = alloca { {}*, [3 x i64]* }, align 8
  %0 = alloca {}, align 1
  %1 = getelementptr inbounds { {}*, [3 x i64]* }, { {}*, [3 x i64]* }* %_1.dbg.spill, i32 0, i32 0
  store {}* %_1.0, {}** %1, align 8
  %2 = getelementptr inbounds { {}*, [3 x i64]* }, { {}*, [3 x i64]* }* %_1.dbg.spill, i32 0, i32 1
  store [3 x i64]* %_1.1, [3 x i64]** %2, align 8
  call void @llvm.dbg.declare(metadata { {}*, [3 x i64]* }* %_1.dbg.spill, metadata !1710, metadata !DIExpression()), !dbg !1711
  %3 = bitcast [3 x i64]* %_1.1 to void ({}*)**, !dbg !1711
  %4 = getelementptr inbounds void ({}*)*, void ({}*)** %3, i64 0, !dbg !1711
  %5 = load void ({}*)*, void ({}*)** %4, align 8, !dbg !1711, !invariant.load !4, !nonnull !4
  call void %5({}* %_1.0), !dbg !1711
  br label %bb1, !dbg !1711

bb1:                                              ; preds = %start
  ret void, !dbg !1711
}

; core::hint::black_box
; Function Attrs: inlinehint uwtable
define internal void @_ZN4core4hint9black_box17h3041d39afd0d95aaE() unnamed_addr #0 !dbg !1712 {
start:
  %dummy = alloca {}, align 1
  call void @llvm.dbg.declare(metadata {}* %dummy, metadata !1718, metadata !DIExpression()), !dbg !1719
  call void asm sideeffect "", "r,~{memory},~{dirflag},~{fpsr},~{flags}"({}* %dummy), !dbg !1720, !srcloc !1721
  ret void, !dbg !1722
}

; core::iter::range::<impl core::iter::traits::iterator::Iterator for core::ops::range::Range<A>>::next
; Function Attrs: inlinehint uwtable
define internal { i32, i32 } @"_ZN4core4iter5range101_$LT$impl$u20$core..iter..traits..iterator..Iterator$u20$for$u20$core..ops..range..Range$LT$A$GT$$GT$4next17h703a68732619f772E"({ i32, i32 }* align 4 dereferenceable(8) %self) unnamed_addr #0 !dbg !1723 {
start:
  %n.dbg.spill = alloca i32, align 4
  %self.dbg.spill = alloca { i32, i32 }*, align 8
  %0 = alloca { i32, i32 }, align 4
  store { i32, i32 }* %self, { i32, i32 }** %self.dbg.spill, align 8
  call void @llvm.dbg.declare(metadata { i32, i32 }** %self.dbg.spill, metadata !1746, metadata !DIExpression()), !dbg !1751
  %_3 = bitcast { i32, i32 }* %self to i32*, !dbg !1752
  %_4 = getelementptr inbounds { i32, i32 }, { i32, i32 }* %self, i32 0, i32 1, !dbg !1753
; call core::cmp::impls::<impl core::cmp::PartialOrd for i32>::lt
  %_2 = call zeroext i1 @"_ZN4core3cmp5impls55_$LT$impl$u20$core..cmp..PartialOrd$u20$for$u20$i32$GT$2lt17hbbbd80cdf1b1f993E"(i32* noalias readonly align 4 dereferenceable(4) %_3, i32* noalias readonly align 4 dereferenceable(4) %_4), !dbg !1752
  br label %bb1, !dbg !1752

bb1:                                              ; preds = %start
  br i1 %_2, label %bb2, label %bb3, !dbg !1754

bb2:                                              ; preds = %bb1
  %_7 = bitcast { i32, i32 }* %self to i32*, !dbg !1755
; call core::clone::impls::<impl core::clone::Clone for i32>::clone
  %_6 = call i32 @"_ZN4core5clone5impls52_$LT$impl$u20$core..clone..Clone$u20$for$u20$i32$GT$5clone17h0de17cfc639501d1E"(i32* noalias readonly align 4 dereferenceable(4) %_7), !dbg !1755
  br label %bb4, !dbg !1755

bb3:                                              ; preds = %bb1
  %1 = bitcast { i32, i32 }* %0 to i32*, !dbg !1756
  store i32 0, i32* %1, align 4, !dbg !1756
  br label %bb7, !dbg !1754

bb4:                                              ; preds = %bb2
; call <i32 as core::iter::range::Step>::forward_unchecked
  %n = call i32 @"_ZN47_$LT$i32$u20$as$u20$core..iter..range..Step$GT$17forward_unchecked17h428b5703cd4c6748E"(i32 %_6, i64 1), !dbg !1757
  store i32 %n, i32* %n.dbg.spill, align 4, !dbg !1757
  call void @llvm.dbg.declare(metadata i32* %n.dbg.spill, metadata !1747, metadata !DIExpression()), !dbg !1758
  br label %bb5, !dbg !1757

bb5:                                              ; preds = %bb4
  %_10 = bitcast { i32, i32 }* %self to i32*, !dbg !1759
; call core::mem::replace
  %_8 = call i32 @_ZN4core3mem7replace17h75d998f1f35f5880E(i32* align 4 dereferenceable(4) %_10, i32 %n), !dbg !1760
  br label %bb6, !dbg !1760

bb6:                                              ; preds = %bb5
  %2 = bitcast { i32, i32 }* %0 to %"std::option::Option<i32>::Some"*, !dbg !1761
  %3 = getelementptr inbounds %"std::option::Option<i32>::Some", %"std::option::Option<i32>::Some"* %2, i32 0, i32 1, !dbg !1761
  store i32 %_8, i32* %3, align 4, !dbg !1761
  %4 = bitcast { i32, i32 }* %0 to i32*, !dbg !1761
  store i32 1, i32* %4, align 4, !dbg !1761
  br label %bb7, !dbg !1754

bb7:                                              ; preds = %bb3, %bb6
  %5 = getelementptr inbounds { i32, i32 }, { i32, i32 }* %0, i32 0, i32 0, !dbg !1762
  %6 = load i32, i32* %5, align 4, !dbg !1762, !range !1763
  %7 = getelementptr inbounds { i32, i32 }, { i32, i32 }* %0, i32 0, i32 1, !dbg !1762
  %8 = load i32, i32* %7, align 4, !dbg !1762
  %9 = insertvalue { i32, i32 } undef, i32 %6, 0, !dbg !1762
  %10 = insertvalue { i32, i32 } %9, i32 %8, 1, !dbg !1762
  ret { i32, i32 } %10, !dbg !1762
}

; core::time::Duration::as_millis
; Function Attrs: inlinehint uwtable
define internal i128 @_ZN4core4time8Duration9as_millis17he0a3535aaa939a4aE({ i64, i32 }* noalias readonly align 8 dereferenceable(16) %self) unnamed_addr #0 !dbg !1764 {
start:
  %self.dbg.spill = alloca { i64, i32 }*, align 8
  store { i64, i32 }* %self, { i64, i32 }** %self.dbg.spill, align 8
  call void @llvm.dbg.declare(metadata { i64, i32 }** %self.dbg.spill, metadata !1770, metadata !DIExpression()), !dbg !1771
  %0 = bitcast { i64, i32 }* %self to i64*, !dbg !1772
  %_4 = load i64, i64* %0, align 8, !dbg !1772
  %_3 = zext i64 %_4 to i128, !dbg !1772
  %_2 = mul i128 %_3, 1000, !dbg !1772
  %1 = getelementptr inbounds { i64, i32 }, { i64, i32 }* %self, i32 0, i32 1, !dbg !1773
  %_8 = load i32, i32* %1, align 8, !dbg !1773
  %_7 = udiv i32 %_8, 1000000, !dbg !1774
  %_6 = zext i32 %_7 to i128, !dbg !1774
  %2 = add i128 %_2, %_6, !dbg !1772
  ret i128 %2, !dbg !1775
}

; core::alloc::layout::size_align
; Function Attrs: uwtable
define internal { i64, i64 } @_ZN4core5alloc6layout10size_align17ha3bb9e55d5812cfdE() unnamed_addr #2 !dbg !1776 {
start:
  %0 = alloca i64, align 8
  %1 = alloca { i64, i64 }, align 8
  br label %bb1, !dbg !1784

bb1:                                              ; preds = %start
  store i64 8, i64* %0, align 8, !dbg !1785
  %2 = load i64, i64* %0, align 8, !dbg !1785
  br label %bb2, !dbg !1790

bb2:                                              ; preds = %bb1
  %3 = bitcast { i64, i64 }* %1 to i64*, !dbg !1791
  store i64 32, i64* %3, align 8, !dbg !1791
  %4 = getelementptr inbounds { i64, i64 }, { i64, i64 }* %1, i32 0, i32 1, !dbg !1791
  store i64 %2, i64* %4, align 8, !dbg !1791
  %5 = getelementptr inbounds { i64, i64 }, { i64, i64 }* %1, i32 0, i32 0, !dbg !1792
  %6 = load i64, i64* %5, align 8, !dbg !1792
  %7 = getelementptr inbounds { i64, i64 }, { i64, i64 }* %1, i32 0, i32 1, !dbg !1792
  %8 = load i64, i64* %7, align 8, !dbg !1792
  %9 = insertvalue { i64, i64 } undef, i64 %6, 0, !dbg !1792
  %10 = insertvalue { i64, i64 } %9, i64 %8, 1, !dbg !1792
  ret { i64, i64 } %10, !dbg !1792
}

; core::alloc::layout::Layout::pad_to_align
; Function Attrs: inlinehint uwtable
define internal { i64, i64 } @_ZN4core5alloc6layout6Layout12pad_to_align17hfac728d874abe47fE({ i64, i64 }* noalias readonly align 8 dereferenceable(16) %self) unnamed_addr #0 !dbg !1793 {
start:
  %new_size.dbg.spill = alloca i64, align 8
  %pad.dbg.spill = alloca i64, align 8
  %self.dbg.spill = alloca { i64, i64 }*, align 8
  store { i64, i64 }* %self, { i64, i64 }** %self.dbg.spill, align 8
  call void @llvm.dbg.declare(metadata { i64, i64 }** %self.dbg.spill, metadata !1802, metadata !DIExpression()), !dbg !1807
; call core::alloc::layout::Layout::align
  %_4 = call i64 @_ZN4core5alloc6layout6Layout5align17h38d19aab612a1d2eE({ i64, i64 }* noalias readonly align 8 dereferenceable(16) %self), !dbg !1808
  br label %bb1, !dbg !1808

bb1:                                              ; preds = %start
; call core::alloc::layout::Layout::padding_needed_for
  %pad = call i64 @_ZN4core5alloc6layout6Layout18padding_needed_for17hf215f12667cbe64aE({ i64, i64 }* noalias readonly align 8 dereferenceable(16) %self, i64 %_4), !dbg !1809
  store i64 %pad, i64* %pad.dbg.spill, align 8, !dbg !1809
  call void @llvm.dbg.declare(metadata i64* %pad.dbg.spill, metadata !1803, metadata !DIExpression()), !dbg !1810
  br label %bb2, !dbg !1809

bb2:                                              ; preds = %bb1
; call core::alloc::layout::Layout::size
  %_7 = call i64 @_ZN4core5alloc6layout6Layout4size17h58b24f158a568ad5E({ i64, i64 }* noalias readonly align 8 dereferenceable(16) %self), !dbg !1811
  br label %bb3, !dbg !1811

bb3:                                              ; preds = %bb2
  %new_size = add i64 %_7, %pad, !dbg !1811
  store i64 %new_size, i64* %new_size.dbg.spill, align 8, !dbg !1811
  call void @llvm.dbg.declare(metadata i64* %new_size.dbg.spill, metadata !1805, metadata !DIExpression()), !dbg !1812
; call core::alloc::layout::Layout::align
  %_12 = call i64 @_ZN4core5alloc6layout6Layout5align17h38d19aab612a1d2eE({ i64, i64 }* noalias readonly align 8 dereferenceable(16) %self), !dbg !1813
  br label %bb4, !dbg !1813

bb4:                                              ; preds = %bb3
; call core::alloc::layout::Layout::from_size_align
  %0 = call { i64, i64 } @_ZN4core5alloc6layout6Layout15from_size_align17h2d39552a56840f31E(i64 %new_size, i64 %_12), !dbg !1814
  %_10.0 = extractvalue { i64, i64 } %0, 0, !dbg !1814
  %_10.1 = extractvalue { i64, i64 } %0, 1, !dbg !1814
  br label %bb5, !dbg !1814

bb5:                                              ; preds = %bb4
; call core::result::Result<T,E>::unwrap
  %1 = call { i64, i64 } @"_ZN4core6result19Result$LT$T$C$E$GT$6unwrap17h488b4d1a8bc19030E"(i64 %_10.0, i64 %_10.1, %"std::panic::Location"* noalias readonly align 8 dereferenceable(24) bitcast (<{ i8*, [16 x i8] }>* @alloc80 to %"std::panic::Location"*)), !dbg !1814
  %2 = extractvalue { i64, i64 } %1, 0, !dbg !1814
  %3 = extractvalue { i64, i64 } %1, 1, !dbg !1814
  br label %bb6, !dbg !1814

bb6:                                              ; preds = %bb5
  %4 = insertvalue { i64, i64 } undef, i64 %2, 0, !dbg !1815
  %5 = insertvalue { i64, i64 } %4, i64 %3, 1, !dbg !1815
  ret { i64, i64 } %5, !dbg !1815
}

; core::alloc::layout::Layout::from_size_align
; Function Attrs: inlinehint uwtable
define internal { i64, i64 } @_ZN4core5alloc6layout6Layout15from_size_align17h2d39552a56840f31E(i64 %size, i64 %align) unnamed_addr #0 !dbg !1816 {
start:
  %align.dbg.spill = alloca i64, align 8
  %size.dbg.spill = alloca i64, align 8
  %0 = alloca { i64, i64 }, align 8
  store i64 %size, i64* %size.dbg.spill, align 8
  call void @llvm.dbg.declare(metadata i64* %size.dbg.spill, metadata !1836, metadata !DIExpression()), !dbg !1838
  store i64 %align, i64* %align.dbg.spill, align 8
  call void @llvm.dbg.declare(metadata i64* %align.dbg.spill, metadata !1837, metadata !DIExpression()), !dbg !1839
; call core::num::<impl usize>::is_power_of_two
  %_4 = call zeroext i1 @"_ZN4core3num23_$LT$impl$u20$usize$GT$15is_power_of_two17ha5e2e607fd873534E"(i64 %align), !dbg !1840
  br label %bb1, !dbg !1840

bb1:                                              ; preds = %start
  %_3 = xor i1 %_4, true, !dbg !1841
  br i1 %_3, label %bb2, label %bb3, !dbg !1842

bb2:                                              ; preds = %bb1
  %1 = bitcast { i64, i64 }* %0 to %"std::result::Result<std::alloc::Layout, std::alloc::LayoutError>::Err"*, !dbg !1843
  %2 = bitcast %"std::result::Result<std::alloc::Layout, std::alloc::LayoutError>::Err"* %1 to %"std::alloc::LayoutError"*, !dbg !1843
  %3 = getelementptr inbounds { i64, i64 }, { i64, i64 }* %0, i32 0, i32 1, !dbg !1843
  store i64 0, i64* %3, align 8, !dbg !1843
  br label %bb7, !dbg !1844

bb3:                                              ; preds = %bb1
  %_9 = sub i64 %align, 1, !dbg !1847
  %_8 = sub i64 -1, %_9, !dbg !1848
  %_6 = icmp ugt i64 %size, %_8, !dbg !1849
  br i1 %_6, label %bb4, label %bb5, !dbg !1850

bb4:                                              ; preds = %bb3
  %4 = bitcast { i64, i64 }* %0 to %"std::result::Result<std::alloc::Layout, std::alloc::LayoutError>::Err"*, !dbg !1851
  %5 = bitcast %"std::result::Result<std::alloc::Layout, std::alloc::LayoutError>::Err"* %4 to %"std::alloc::LayoutError"*, !dbg !1851
  %6 = getelementptr inbounds { i64, i64 }, { i64, i64 }* %0, i32 0, i32 1, !dbg !1851
  store i64 0, i64* %6, align 8, !dbg !1851
  br label %bb7, !dbg !1844

bb5:                                              ; preds = %bb3
; call core::alloc::layout::Layout::from_size_align_unchecked
  %7 = call { i64, i64 } @_ZN4core5alloc6layout6Layout25from_size_align_unchecked17h99ac0036ded31637E(i64 %size, i64 %align), !dbg !1852
  %_11.0 = extractvalue { i64, i64 } %7, 0, !dbg !1852
  %_11.1 = extractvalue { i64, i64 } %7, 1, !dbg !1852
  br label %bb6, !dbg !1852

bb6:                                              ; preds = %bb5
  %8 = getelementptr inbounds { i64, i64 }, { i64, i64 }* %0, i32 0, i32 0, !dbg !1853
  store i64 %_11.0, i64* %8, align 8, !dbg !1853
  %9 = getelementptr inbounds { i64, i64 }, { i64, i64 }* %0, i32 0, i32 1, !dbg !1853
  store i64 %_11.1, i64* %9, align 8, !dbg !1853
  br label %bb7, !dbg !1854

bb7:                                              ; preds = %bb6, %bb4, %bb2
  %10 = getelementptr inbounds { i64, i64 }, { i64, i64 }* %0, i32 0, i32 0, !dbg !1854
  %11 = load i64, i64* %10, align 8, !dbg !1854
  %12 = getelementptr inbounds { i64, i64 }, { i64, i64 }* %0, i32 0, i32 1, !dbg !1854
  %13 = load i64, i64* %12, align 8, !dbg !1854
  %14 = insertvalue { i64, i64 } undef, i64 %11, 0, !dbg !1854
  %15 = insertvalue { i64, i64 } %14, i64 %13, 1, !dbg !1854
  ret { i64, i64 } %15, !dbg !1854
}

; core::alloc::layout::Layout::padding_needed_for
; Function Attrs: inlinehint uwtable
define internal i64 @_ZN4core5alloc6layout6Layout18padding_needed_for17hf215f12667cbe64aE({ i64, i64 }* noalias readonly align 8 dereferenceable(16) %self, i64 %align) unnamed_addr #0 !dbg !1855 {
start:
  %len_rounded_up.dbg.spill = alloca i64, align 8
  %len.dbg.spill = alloca i64, align 8
  %align.dbg.spill = alloca i64, align 8
  %self.dbg.spill = alloca { i64, i64 }*, align 8
  store { i64, i64 }* %self, { i64, i64 }** %self.dbg.spill, align 8
  call void @llvm.dbg.declare(metadata { i64, i64 }** %self.dbg.spill, metadata !1859, metadata !DIExpression()), !dbg !1865
  store i64 %align, i64* %align.dbg.spill, align 8
  call void @llvm.dbg.declare(metadata i64* %align.dbg.spill, metadata !1860, metadata !DIExpression()), !dbg !1866
; call core::alloc::layout::Layout::size
  %len = call i64 @_ZN4core5alloc6layout6Layout4size17h58b24f158a568ad5E({ i64, i64 }* noalias readonly align 8 dereferenceable(16) %self), !dbg !1867
  store i64 %len, i64* %len.dbg.spill, align 8, !dbg !1867
  call void @llvm.dbg.declare(metadata i64* %len.dbg.spill, metadata !1861, metadata !DIExpression()), !dbg !1868
  br label %bb1, !dbg !1867

bb1:                                              ; preds = %start
; call core::num::<impl usize>::wrapping_add
  %_7 = call i64 @"_ZN4core3num23_$LT$impl$u20$usize$GT$12wrapping_add17haf92afe4e00c69f6E"(i64 %len, i64 %align), !dbg !1869
  br label %bb2, !dbg !1869

bb2:                                              ; preds = %bb1
; call core::num::<impl usize>::wrapping_sub
  %_6 = call i64 @"_ZN4core3num23_$LT$impl$u20$usize$GT$12wrapping_sub17h1a5820c462b33e36E"(i64 %_7, i64 1), !dbg !1869
  br label %bb3, !dbg !1869

bb3:                                              ; preds = %bb2
; call core::num::<impl usize>::wrapping_sub
  %_11 = call i64 @"_ZN4core3num23_$LT$impl$u20$usize$GT$12wrapping_sub17h1a5820c462b33e36E"(i64 %align, i64 1), !dbg !1870
  br label %bb4, !dbg !1870

bb4:                                              ; preds = %bb3
  %_10 = xor i64 %_11, -1, !dbg !1871
  %len_rounded_up = and i64 %_6, %_10, !dbg !1869
  store i64 %len_rounded_up, i64* %len_rounded_up.dbg.spill, align 8, !dbg !1869
  call void @llvm.dbg.declare(metadata i64* %len_rounded_up.dbg.spill, metadata !1863, metadata !DIExpression()), !dbg !1872
; call core::num::<impl usize>::wrapping_sub
  %0 = call i64 @"_ZN4core3num23_$LT$impl$u20$usize$GT$12wrapping_sub17h1a5820c462b33e36E"(i64 %len_rounded_up, i64 %len), !dbg !1873
  br label %bb5, !dbg !1873

bb5:                                              ; preds = %bb4
  ret i64 %0, !dbg !1874
}

; core::alloc::layout::Layout::from_size_align_unchecked
; Function Attrs: inlinehint uwtable
define internal { i64, i64 } @_ZN4core5alloc6layout6Layout25from_size_align_unchecked17h99ac0036ded31637E(i64 %size, i64 %align) unnamed_addr #0 !dbg !1875 {
start:
  %align.dbg.spill = alloca i64, align 8
  %size.dbg.spill = alloca i64, align 8
  %0 = alloca { i64, i64 }, align 8
  store i64 %size, i64* %size.dbg.spill, align 8
  call void @llvm.dbg.declare(metadata i64* %size.dbg.spill, metadata !1879, metadata !DIExpression()), !dbg !1881
  store i64 %align, i64* %align.dbg.spill, align 8
  call void @llvm.dbg.declare(metadata i64* %align.dbg.spill, metadata !1880, metadata !DIExpression()), !dbg !1882
; call core::num::nonzero::NonZeroUsize::new_unchecked
  %_4 = call i64 @_ZN4core3num7nonzero12NonZeroUsize13new_unchecked17h8b08baa34b520ddaE(i64 %align), !dbg !1883, !range !841
  br label %bb1, !dbg !1883

bb1:                                              ; preds = %start
  %1 = bitcast { i64, i64 }* %0 to i64*, !dbg !1884
  store i64 %size, i64* %1, align 8, !dbg !1884
  %2 = getelementptr inbounds { i64, i64 }, { i64, i64 }* %0, i32 0, i32 1, !dbg !1884
  store i64 %_4, i64* %2, align 8, !dbg !1884
  %3 = getelementptr inbounds { i64, i64 }, { i64, i64 }* %0, i32 0, i32 0, !dbg !1885
  %4 = load i64, i64* %3, align 8, !dbg !1885
  %5 = getelementptr inbounds { i64, i64 }, { i64, i64 }* %0, i32 0, i32 1, !dbg !1885
  %6 = load i64, i64* %5, align 8, !dbg !1885, !range !841
  %7 = insertvalue { i64, i64 } undef, i64 %4, 0, !dbg !1885
  %8 = insertvalue { i64, i64 } %7, i64 %6, 1, !dbg !1885
  ret { i64, i64 } %8, !dbg !1885
}

; core::alloc::layout::Layout::new
; Function Attrs: inlinehint uwtable
define internal { i64, i64 } @_ZN4core5alloc6layout6Layout3new17h47545e2cbc31333aE() unnamed_addr #0 !dbg !1886 {
start:
  %align.dbg.spill = alloca i64, align 8, !dbg !1893
  %size.dbg.spill = alloca i64, align 8, !dbg !1893
; call core::alloc::layout::size_align
  %0 = call { i64, i64 } @_ZN4core5alloc6layout10size_align17ha3bb9e55d5812cfdE(), !dbg !1893
  %_3.0 = extractvalue { i64, i64 } %0, 0, !dbg !1893
  %_3.1 = extractvalue { i64, i64 } %0, 1, !dbg !1893
  br label %bb1, !dbg !1893

bb1:                                              ; preds = %start
  store i64 %_3.0, i64* %size.dbg.spill, align 8, !dbg !1894
  call void @llvm.dbg.declare(metadata i64* %size.dbg.spill, metadata !1890, metadata !DIExpression()), !dbg !1895
  store i64 %_3.1, i64* %align.dbg.spill, align 8, !dbg !1896
  call void @llvm.dbg.declare(metadata i64* %align.dbg.spill, metadata !1892, metadata !DIExpression()), !dbg !1897
; call core::alloc::layout::Layout::from_size_align_unchecked
  %1 = call { i64, i64 } @_ZN4core5alloc6layout6Layout25from_size_align_unchecked17h99ac0036ded31637E(i64 %_3.0, i64 %_3.1), !dbg !1898
  %2 = extractvalue { i64, i64 } %1, 0, !dbg !1898
  %3 = extractvalue { i64, i64 } %1, 1, !dbg !1898
  br label %bb2, !dbg !1898

bb2:                                              ; preds = %bb1
  %4 = insertvalue { i64, i64 } undef, i64 %2, 0, !dbg !1899
  %5 = insertvalue { i64, i64 } %4, i64 %3, 1, !dbg !1899
  ret { i64, i64 } %5, !dbg !1899
}

; core::alloc::layout::Layout::size
; Function Attrs: inlinehint uwtable
define internal i64 @_ZN4core5alloc6layout6Layout4size17h58b24f158a568ad5E({ i64, i64 }* noalias readonly align 8 dereferenceable(16) %self) unnamed_addr #0 !dbg !1900 {
start:
  %self.dbg.spill = alloca { i64, i64 }*, align 8
  store { i64, i64 }* %self, { i64, i64 }** %self.dbg.spill, align 8
  call void @llvm.dbg.declare(metadata { i64, i64 }** %self.dbg.spill, metadata !1904, metadata !DIExpression()), !dbg !1905
  %0 = bitcast { i64, i64 }* %self to i64*, !dbg !1906
  %1 = load i64, i64* %0, align 8, !dbg !1906
  ret i64 %1, !dbg !1907
}

; core::alloc::layout::Layout::align
; Function Attrs: inlinehint uwtable
define internal i64 @_ZN4core5alloc6layout6Layout5align17h38d19aab612a1d2eE({ i64, i64 }* noalias readonly align 8 dereferenceable(16) %self) unnamed_addr #0 !dbg !1908 {
start:
  %self.dbg.spill = alloca { i64, i64 }*, align 8
  store { i64, i64 }* %self, { i64, i64 }** %self.dbg.spill, align 8
  call void @llvm.dbg.declare(metadata { i64, i64 }** %self.dbg.spill, metadata !1910, metadata !DIExpression()), !dbg !1911
  %0 = getelementptr inbounds { i64, i64 }, { i64, i64 }* %self, i32 0, i32 1, !dbg !1912
  %_2 = load i64, i64* %0, align 8, !dbg !1912, !range !841
; call core::num::nonzero::NonZeroUsize::get
  %1 = call i64 @_ZN4core3num7nonzero12NonZeroUsize3get17h0de60b073d697de7E(i64 %_2), !dbg !1912
  br label %bb1, !dbg !1912

bb1:                                              ; preds = %start
  ret i64 %1, !dbg !1913
}

; core::alloc::layout::Layout::array
; Function Attrs: inlinehint uwtable
define internal { i64, i64 } @_ZN4core5alloc6layout6Layout5array17hd2cdb94ada897c33E(i64 %n) unnamed_addr #0 !dbg !1914 {
start:
  %offset.dbg.spill = alloca i64, align 8
  %err.dbg.spill = alloca %"std::alloc::LayoutError", align 1
  %n.dbg.spill = alloca i64, align 8
  %val = alloca { [0 x i64], { i64, i64 }, [0 x i64], i64, [0 x i64] }, align 8
  %_8 = alloca { i64, i64 }, align 8
  %_6 = alloca %"std::result::Result<(std::alloc::Layout, usize), std::alloc::LayoutError>", align 8
  %_5 = alloca %"std::result::Result<(std::alloc::Layout, usize), std::alloc::LayoutError>", align 8
  %_4 = alloca { [0 x i64], { i64, i64 }, [0 x i64], i64, [0 x i64] }, align 8
  %layout = alloca { i64, i64 }, align 8
  %0 = alloca { i64, i64 }, align 8
  store i64 %n, i64* %n.dbg.spill, align 8
  call void @llvm.dbg.declare(metadata i64* %n.dbg.spill, metadata !1918, metadata !DIExpression()), !dbg !1941
  call void @llvm.dbg.declare(metadata { i64, i64 }* %layout, metadata !1919, metadata !DIExpression()), !dbg !1942
  call void @llvm.dbg.declare(metadata %"std::alloc::LayoutError"* %err.dbg.spill, metadata !1922, metadata !DIExpression()), !dbg !1943
  call void @llvm.dbg.declare(metadata { [0 x i64], { i64, i64 }, [0 x i64], i64, [0 x i64] }* %val, metadata !1924, metadata !DIExpression()), !dbg !1944
; call core::alloc::layout::Layout::new
  %1 = call { i64, i64 } @_ZN4core5alloc6layout6Layout3new17h47545e2cbc31333aE(), !dbg !1945
  store { i64, i64 } %1, { i64, i64 }* %_8, align 8, !dbg !1945
  br label %bb1, !dbg !1945

bb1:                                              ; preds = %start
; call core::alloc::layout::Layout::repeat
  call void @_ZN4core5alloc6layout6Layout6repeat17hac26de544cc2235fE(%"std::result::Result<(std::alloc::Layout, usize), std::alloc::LayoutError>"* noalias nocapture sret dereferenceable(24) %_6, { i64, i64 }* noalias readonly align 8 dereferenceable(16) %_8, i64 %n), !dbg !1945
  br label %bb2, !dbg !1945

bb2:                                              ; preds = %bb1
; call <core::result::Result<T,E> as core::ops::try::Try>::into_result
  call void @"_ZN73_$LT$core..result..Result$LT$T$C$E$GT$$u20$as$u20$core..ops..try..Try$GT$11into_result17h6dac80067cb1ba2fE"(%"std::result::Result<(std::alloc::Layout, usize), std::alloc::LayoutError>"* noalias nocapture sret dereferenceable(24) %_5, %"std::result::Result<(std::alloc::Layout, usize), std::alloc::LayoutError>"* noalias nocapture dereferenceable(24) %_6), !dbg !1945
  br label %bb3, !dbg !1945

bb3:                                              ; preds = %bb2
  %2 = getelementptr inbounds %"std::result::Result<(std::alloc::Layout, usize), std::alloc::LayoutError>", %"std::result::Result<(std::alloc::Layout, usize), std::alloc::LayoutError>"* %_5, i32 0, i32 1, !dbg !1946
  %3 = load i64, i64* %2, align 8, !dbg !1946
  %4 = icmp eq i64 %3, 0, !dbg !1946
  %_10 = select i1 %4, i64 1, i64 0, !dbg !1946
  switch i64 %_10, label %bb5 [
    i64 0, label %bb4
    i64 1, label %bb6
  ], !dbg !1946

bb4:                                              ; preds = %bb3
  %5 = bitcast %"std::result::Result<(std::alloc::Layout, usize), std::alloc::LayoutError>"* %_5 to %"std::result::Result<(std::alloc::Layout, usize), std::alloc::LayoutError>::Ok"*, !dbg !1945
  %6 = bitcast %"std::result::Result<(std::alloc::Layout, usize), std::alloc::LayoutError>::Ok"* %5 to { [0 x i64], { i64, i64 }, [0 x i64], i64, [0 x i64] }*, !dbg !1945
  %7 = bitcast { [0 x i64], { i64, i64 }, [0 x i64], i64, [0 x i64] }* %val to i8*, !dbg !1945
  %8 = bitcast { [0 x i64], { i64, i64 }, [0 x i64], i64, [0 x i64] }* %6 to i8*, !dbg !1945
  call void @llvm.memcpy.p0i8.p0i8.i64(i8* align 8 %7, i8* align 8 %8, i64 24, i1 false), !dbg !1945
  %9 = bitcast { [0 x i64], { i64, i64 }, [0 x i64], i64, [0 x i64] }* %_4 to i8*, !dbg !1944
  %10 = bitcast { [0 x i64], { i64, i64 }, [0 x i64], i64, [0 x i64] }* %val to i8*, !dbg !1944
  call void @llvm.memcpy.p0i8.p0i8.i64(i8* align 8 %9, i8* align 8 %10, i64 24, i1 false), !dbg !1944
  %11 = bitcast { [0 x i64], { i64, i64 }, [0 x i64], i64, [0 x i64] }* %_4 to { i64, i64 }*, !dbg !1947
  %12 = getelementptr inbounds { i64, i64 }, { i64, i64 }* %11, i32 0, i32 0, !dbg !1947
  %13 = load i64, i64* %12, align 8, !dbg !1947
  %14 = getelementptr inbounds { i64, i64 }, { i64, i64 }* %11, i32 0, i32 1, !dbg !1947
  %15 = load i64, i64* %14, align 8, !dbg !1947, !range !841
  %16 = getelementptr inbounds { i64, i64 }, { i64, i64 }* %layout, i32 0, i32 0, !dbg !1947
  store i64 %13, i64* %16, align 8, !dbg !1947
  %17 = getelementptr inbounds { i64, i64 }, { i64, i64 }* %layout, i32 0, i32 1, !dbg !1947
  store i64 %15, i64* %17, align 8, !dbg !1947
  %18 = getelementptr inbounds { [0 x i64], { i64, i64 }, [0 x i64], i64, [0 x i64] }, { [0 x i64], { i64, i64 }, [0 x i64], i64, [0 x i64] }* %_4, i32 0, i32 3, !dbg !1948
  %offset = load i64, i64* %18, align 8, !dbg !1948
  store i64 %offset, i64* %offset.dbg.spill, align 8, !dbg !1948
  call void @llvm.dbg.declare(metadata i64* %offset.dbg.spill, metadata !1921, metadata !DIExpression()), !dbg !1949
; call core::alloc::layout::Layout::pad_to_align
  %19 = call { i64, i64 } @_ZN4core5alloc6layout6Layout12pad_to_align17hfac728d874abe47fE({ i64, i64 }* noalias readonly align 8 dereferenceable(16) %layout), !dbg !1950
  %_19.0 = extractvalue { i64, i64 } %19, 0, !dbg !1950
  %_19.1 = extractvalue { i64, i64 } %19, 1, !dbg !1950
  br label %bb9, !dbg !1950

bb5:                                              ; preds = %bb3
  unreachable, !dbg !1945

bb6:                                              ; preds = %bb3
; call <T as core::convert::From<T>>::from
  call void @"_ZN50_$LT$T$u20$as$u20$core..convert..From$LT$T$GT$$GT$4from17had698c3bf3a7a162E"(), !dbg !1943
  br label %bb7, !dbg !1943

bb7:                                              ; preds = %bb6
; call <core::result::Result<T,E> as core::ops::try::Try>::from_error
  %20 = call { i64, i64 } @"_ZN73_$LT$core..result..Result$LT$T$C$E$GT$$u20$as$u20$core..ops..try..Try$GT$10from_error17h87af0fd7cd78195dE"(), !dbg !1951
  store { i64, i64 } %20, { i64, i64 }* %0, align 8, !dbg !1951
  br label %bb8, !dbg !1951

bb8:                                              ; preds = %bb7
  br label %bb10, !dbg !1952

bb9:                                              ; preds = %bb4
  %21 = getelementptr inbounds { i64, i64 }, { i64, i64 }* %0, i32 0, i32 0, !dbg !1953
  store i64 %_19.0, i64* %21, align 8, !dbg !1953
  %22 = getelementptr inbounds { i64, i64 }, { i64, i64 }* %0, i32 0, i32 1, !dbg !1953
  store i64 %_19.1, i64* %22, align 8, !dbg !1953
  br label %bb10, !dbg !1952

bb10:                                             ; preds = %bb9, %bb8
  %23 = getelementptr inbounds { i64, i64 }, { i64, i64 }* %0, i32 0, i32 0, !dbg !1952
  %24 = load i64, i64* %23, align 8, !dbg !1952
  %25 = getelementptr inbounds { i64, i64 }, { i64, i64 }* %0, i32 0, i32 1, !dbg !1952
  %26 = load i64, i64* %25, align 8, !dbg !1952
  %27 = insertvalue { i64, i64 } undef, i64 %24, 0, !dbg !1952
  %28 = insertvalue { i64, i64 } %27, i64 %26, 1, !dbg !1952
  ret { i64, i64 } %28, !dbg !1952
}

; core::alloc::layout::Layout::repeat
; Function Attrs: inlinehint uwtable
define internal void @_ZN4core5alloc6layout6Layout6repeat17hac26de544cc2235fE(%"std::result::Result<(std::alloc::Layout, usize), std::alloc::LayoutError>"* noalias nocapture sret dereferenceable(24) %0, { i64, i64 }* noalias readonly align 8 dereferenceable(16) %self, i64 %n) unnamed_addr #0 !dbg !1954 {
start:
  %alloc_size.dbg.spill = alloca i64, align 8
  %val.dbg.spill = alloca i64, align 8
  %padded_size.dbg.spill = alloca i64, align 8
  %err.dbg.spill = alloca %"std::alloc::LayoutError", align 1
  %n.dbg.spill = alloca i64, align 8
  %self.dbg.spill = alloca { i64, i64 }*, align 8
  %_22 = alloca { [0 x i64], { i64, i64 }, [0 x i64], i64, [0 x i64] }, align 8
  %_16 = alloca %"std::alloc::LayoutError", align 1
  %_11 = alloca { i64, i64 }, align 8
  store { i64, i64 }* %self, { i64, i64 }** %self.dbg.spill, align 8
  call void @llvm.dbg.declare(metadata { i64, i64 }** %self.dbg.spill, metadata !1972, metadata !DIExpression()), !dbg !1982
  store i64 %n, i64* %n.dbg.spill, align 8
  call void @llvm.dbg.declare(metadata i64* %n.dbg.spill, metadata !1973, metadata !DIExpression()), !dbg !1983
  call void @llvm.dbg.declare(metadata %"std::alloc::LayoutError"* %err.dbg.spill, metadata !1978, metadata !DIExpression()), !dbg !1984
; call core::alloc::layout::Layout::size
  %_4 = call i64 @_ZN4core5alloc6layout6Layout4size17h58b24f158a568ad5E({ i64, i64 }* noalias readonly align 8 dereferenceable(16) %self), !dbg !1985
  br label %bb1, !dbg !1985

bb1:                                              ; preds = %start
; call core::alloc::layout::Layout::align
  %_8 = call i64 @_ZN4core5alloc6layout6Layout5align17h38d19aab612a1d2eE({ i64, i64 }* noalias readonly align 8 dereferenceable(16) %self), !dbg !1986
  br label %bb2, !dbg !1986

bb2:                                              ; preds = %bb1
; call core::alloc::layout::Layout::padding_needed_for
  %_6 = call i64 @_ZN4core5alloc6layout6Layout18padding_needed_for17hf215f12667cbe64aE({ i64, i64 }* noalias readonly align 8 dereferenceable(16) %self, i64 %_8), !dbg !1987
  br label %bb3, !dbg !1987

bb3:                                              ; preds = %bb2
  %padded_size = add i64 %_4, %_6, !dbg !1985
  store i64 %padded_size, i64* %padded_size.dbg.spill, align 8, !dbg !1985
  call void @llvm.dbg.declare(metadata i64* %padded_size.dbg.spill, metadata !1974, metadata !DIExpression()), !dbg !1988
; call core::num::<impl usize>::checked_mul
  %1 = call { i64, i64 } @"_ZN4core3num23_$LT$impl$u20$usize$GT$11checked_mul17h13983a11b3168fe2E"(i64 %padded_size, i64 %n), !dbg !1989
  %_13.0 = extractvalue { i64, i64 } %1, 0, !dbg !1989
  %_13.1 = extractvalue { i64, i64 } %1, 1, !dbg !1989
  br label %bb4, !dbg !1989

bb4:                                              ; preds = %bb3
  %2 = bitcast %"std::alloc::LayoutError"* %_16 to {}*, !dbg !1990
; call core::option::Option<T>::ok_or
  %3 = call { i64, i64 } @"_ZN4core6option15Option$LT$T$GT$5ok_or17hc21b123dfae9d161E"(i64 %_13.0, i64 %_13.1), !dbg !1989
  %_12.0 = extractvalue { i64, i64 } %3, 0, !dbg !1989
  %_12.1 = extractvalue { i64, i64 } %3, 1, !dbg !1989
  br label %bb5, !dbg !1989

bb5:                                              ; preds = %bb4
; call <core::result::Result<T,E> as core::ops::try::Try>::into_result
  %4 = call { i64, i64 } @"_ZN73_$LT$core..result..Result$LT$T$C$E$GT$$u20$as$u20$core..ops..try..Try$GT$11into_result17h787f3485668f8b97E"(i64 %_12.0, i64 %_12.1), !dbg !1989
  store { i64, i64 } %4, { i64, i64 }* %_11, align 8, !dbg !1989
  br label %bb6, !dbg !1989

bb6:                                              ; preds = %bb5
  %5 = bitcast { i64, i64 }* %_11 to i64*, !dbg !1991
  %_17 = load i64, i64* %5, align 8, !dbg !1991, !range !746
  switch i64 %_17, label %bb8 [
    i64 0, label %bb7
    i64 1, label %bb9
  ], !dbg !1991

bb7:                                              ; preds = %bb6
  %6 = bitcast { i64, i64 }* %_11 to %"std::result::Result<usize, std::alloc::LayoutError>::Ok"*, !dbg !1989
  %7 = getelementptr inbounds %"std::result::Result<usize, std::alloc::LayoutError>::Ok", %"std::result::Result<usize, std::alloc::LayoutError>::Ok"* %6, i32 0, i32 1, !dbg !1989
  %val = load i64, i64* %7, align 8, !dbg !1989
  store i64 %val, i64* %val.dbg.spill, align 8, !dbg !1989
  call void @llvm.dbg.declare(metadata i64* %val.dbg.spill, metadata !1980, metadata !DIExpression()), !dbg !1992
  store i64 %val, i64* %alloc_size.dbg.spill, align 8, !dbg !1992
  call void @llvm.dbg.declare(metadata i64* %alloc_size.dbg.spill, metadata !1976, metadata !DIExpression()), !dbg !1993
; call core::alloc::layout::Layout::align
  %_25 = call i64 @_ZN4core5alloc6layout6Layout5align17h38d19aab612a1d2eE({ i64, i64 }* noalias readonly align 8 dereferenceable(16) %self), !dbg !1994
  br label %bb12, !dbg !1994

bb8:                                              ; preds = %bb6
  unreachable, !dbg !1989

bb9:                                              ; preds = %bb6
; call <T as core::convert::From<T>>::from
  call void @"_ZN50_$LT$T$u20$as$u20$core..convert..From$LT$T$GT$$GT$4from17had698c3bf3a7a162E"(), !dbg !1984
  br label %bb10, !dbg !1984

bb10:                                             ; preds = %bb9
; call <core::result::Result<T,E> as core::ops::try::Try>::from_error
  call void @"_ZN73_$LT$core..result..Result$LT$T$C$E$GT$$u20$as$u20$core..ops..try..Try$GT$10from_error17he587e353f9593713E"(%"std::result::Result<(std::alloc::Layout, usize), std::alloc::LayoutError>"* noalias nocapture sret dereferenceable(24) %0), !dbg !1995
  br label %bb11, !dbg !1995

bb11:                                             ; preds = %bb10
  br label %bb14, !dbg !1996

bb12:                                             ; preds = %bb7
; call core::alloc::layout::Layout::from_size_align_unchecked
  %8 = call { i64, i64 } @_ZN4core5alloc6layout6Layout25from_size_align_unchecked17h99ac0036ded31637E(i64 %val, i64 %_25), !dbg !1997
  %_23.0 = extractvalue { i64, i64 } %8, 0, !dbg !1997
  %_23.1 = extractvalue { i64, i64 } %8, 1, !dbg !1997
  br label %bb13, !dbg !1997

bb13:                                             ; preds = %bb12
  %9 = bitcast { [0 x i64], { i64, i64 }, [0 x i64], i64, [0 x i64] }* %_22 to { i64, i64 }*, !dbg !1998
  %10 = getelementptr inbounds { i64, i64 }, { i64, i64 }* %9, i32 0, i32 0, !dbg !1998
  store i64 %_23.0, i64* %10, align 8, !dbg !1998
  %11 = getelementptr inbounds { i64, i64 }, { i64, i64 }* %9, i32 0, i32 1, !dbg !1998
  store i64 %_23.1, i64* %11, align 8, !dbg !1998
  %12 = getelementptr inbounds { [0 x i64], { i64, i64 }, [0 x i64], i64, [0 x i64] }, { [0 x i64], { i64, i64 }, [0 x i64], i64, [0 x i64] }* %_22, i32 0, i32 3, !dbg !1998
  store i64 %padded_size, i64* %12, align 8, !dbg !1998
  %13 = bitcast %"std::result::Result<(std::alloc::Layout, usize), std::alloc::LayoutError>"* %0 to %"std::result::Result<(std::alloc::Layout, usize), std::alloc::LayoutError>::Ok"*, !dbg !1999
  %14 = bitcast %"std::result::Result<(std::alloc::Layout, usize), std::alloc::LayoutError>::Ok"* %13 to { [0 x i64], { i64, i64 }, [0 x i64], i64, [0 x i64] }*, !dbg !1999
  %15 = bitcast { [0 x i64], { i64, i64 }, [0 x i64], i64, [0 x i64] }* %14 to i8*, !dbg !1999
  %16 = bitcast { [0 x i64], { i64, i64 }, [0 x i64], i64, [0 x i64] }* %_22 to i8*, !dbg !1999
  call void @llvm.memcpy.p0i8.p0i8.i64(i8* align 8 %15, i8* align 8 %16, i64 24, i1 false), !dbg !1999
  br label %bb14, !dbg !1996

bb14:                                             ; preds = %bb13, %bb11
  ret void, !dbg !1996
}

; core::alloc::layout::Layout::dangling
; Function Attrs: inlinehint uwtable
define internal nonnull i8* @_ZN4core5alloc6layout6Layout8dangling17hd49c2b33b28cb6ebE({ i64, i64 }* noalias readonly align 8 dereferenceable(16) %self) unnamed_addr #0 !dbg !2000 {
start:
  %self.dbg.spill = alloca { i64, i64 }*, align 8
  store { i64, i64 }* %self, { i64, i64 }** %self.dbg.spill, align 8
  call void @llvm.dbg.declare(metadata { i64, i64 }** %self.dbg.spill, metadata !2004, metadata !DIExpression()), !dbg !2005
; call core::alloc::layout::Layout::align
  %_3 = call i64 @_ZN4core5alloc6layout6Layout5align17h38d19aab612a1d2eE({ i64, i64 }* noalias readonly align 8 dereferenceable(16) %self), !dbg !2006
  br label %bb1, !dbg !2006

bb1:                                              ; preds = %start
  %_2 = inttoptr i64 %_3 to i8*, !dbg !2006
; call core::ptr::non_null::NonNull<T>::new_unchecked
  %0 = call nonnull i8* @"_ZN4core3ptr8non_null16NonNull$LT$T$GT$13new_unchecked17h697f17f1b0ea219cE"(i8* %_2), !dbg !2007
  br label %bb2, !dbg !2007

bb2:                                              ; preds = %bb1
  ret i8* %0, !dbg !2008
}

; core::clone::impls::<impl core::clone::Clone for i32>::clone
; Function Attrs: inlinehint uwtable
define internal i32 @"_ZN4core5clone5impls52_$LT$impl$u20$core..clone..Clone$u20$for$u20$i32$GT$5clone17h0de17cfc639501d1E"(i32* noalias readonly align 4 dereferenceable(4) %self) unnamed_addr #0 !dbg !2009 {
start:
  %self.dbg.spill = alloca i32*, align 8
  store i32* %self, i32** %self.dbg.spill, align 8
  call void @llvm.dbg.declare(metadata i32** %self.dbg.spill, metadata !2017, metadata !DIExpression()), !dbg !2018
  %0 = load i32, i32* %self, align 4, !dbg !2019
  ret i32 %0, !dbg !2020
}

; core::option::Option<T>::ok_or
; Function Attrs: inlinehint uwtable
define internal void @"_ZN4core6option15Option$LT$T$GT$5ok_or17h3576847c04b4cfadE"(%"std::result::Result<usize, std::collections::TryReserveError>"* noalias nocapture sret dereferenceable(24) %0, i64 %1, i64 %2, i64 %err.0, i64 %err.1) unnamed_addr #0 !dbg !2021 {
start:
  %v.dbg.spill = alloca i64, align 8
  %err.dbg.spill = alloca { i64, i64 }, align 8
  %_7 = alloca i8, align 1
  %self = alloca { i64, i64 }, align 8
  %3 = getelementptr inbounds { i64, i64 }, { i64, i64 }* %self, i32 0, i32 0
  store i64 %1, i64* %3, align 8
  %4 = getelementptr inbounds { i64, i64 }, { i64, i64 }* %self, i32 0, i32 1
  store i64 %2, i64* %4, align 8
  call void @llvm.dbg.declare(metadata { i64, i64 }* %self, metadata !2053, metadata !DIExpression()), !dbg !2057
  %5 = getelementptr inbounds { i64, i64 }, { i64, i64 }* %err.dbg.spill, i32 0, i32 0
  store i64 %err.0, i64* %5, align 8
  %6 = getelementptr inbounds { i64, i64 }, { i64, i64 }* %err.dbg.spill, i32 0, i32 1
  store i64 %err.1, i64* %6, align 8
  call void @llvm.dbg.declare(metadata { i64, i64 }* %err.dbg.spill, metadata !2054, metadata !DIExpression()), !dbg !2058
  store i8 0, i8* %_7, align 1, !dbg !2059
  store i8 1, i8* %_7, align 1, !dbg !2059
  %7 = bitcast { i64, i64 }* %self to i64*, !dbg !2059
  %_3 = load i64, i64* %7, align 8, !dbg !2059, !range !746
  switch i64 %_3, label %bb2 [
    i64 0, label %bb1
    i64 1, label %bb3
  ], !dbg !2059

bb1:                                              ; preds = %start
  store i8 0, i8* %_7, align 1, !dbg !2060
  %8 = bitcast %"std::result::Result<usize, std::collections::TryReserveError>"* %0 to %"std::result::Result<usize, std::collections::TryReserveError>::Err"*, !dbg !2061
  %9 = getelementptr inbounds %"std::result::Result<usize, std::collections::TryReserveError>::Err", %"std::result::Result<usize, std::collections::TryReserveError>::Err"* %8, i32 0, i32 1, !dbg !2061
  %10 = getelementptr inbounds { i64, i64 }, { i64, i64 }* %9, i32 0, i32 0, !dbg !2061
  store i64 %err.0, i64* %10, align 8, !dbg !2061
  %11 = getelementptr inbounds { i64, i64 }, { i64, i64 }* %9, i32 0, i32 1, !dbg !2061
  store i64 %err.1, i64* %11, align 8, !dbg !2061
  %12 = bitcast %"std::result::Result<usize, std::collections::TryReserveError>"* %0 to i64*, !dbg !2061
  store i64 1, i64* %12, align 8, !dbg !2061
  br label %bb4, !dbg !2062

bb2:                                              ; preds = %start
  unreachable, !dbg !2063

bb3:                                              ; preds = %start
  %13 = bitcast { i64, i64 }* %self to %"std::option::Option<usize>::Some"*, !dbg !2064
  %14 = getelementptr inbounds %"std::option::Option<usize>::Some", %"std::option::Option<usize>::Some"* %13, i32 0, i32 1, !dbg !2064
  %v = load i64, i64* %14, align 8, !dbg !2064
  store i64 %v, i64* %v.dbg.spill, align 8, !dbg !2064
  call void @llvm.dbg.declare(metadata i64* %v.dbg.spill, metadata !2055, metadata !DIExpression()), !dbg !2065
  %15 = bitcast %"std::result::Result<usize, std::collections::TryReserveError>"* %0 to %"std::result::Result<usize, std::collections::TryReserveError>::Ok"*, !dbg !2066
  %16 = getelementptr inbounds %"std::result::Result<usize, std::collections::TryReserveError>::Ok", %"std::result::Result<usize, std::collections::TryReserveError>::Ok"* %15, i32 0, i32 1, !dbg !2066
  store i64 %v, i64* %16, align 8, !dbg !2066
  %17 = bitcast %"std::result::Result<usize, std::collections::TryReserveError>"* %0 to i64*, !dbg !2066
  store i64 0, i64* %17, align 8, !dbg !2066
  br label %bb4, !dbg !2062

bb4:                                              ; preds = %bb1, %bb3
  %18 = load i8, i8* %_7, align 1, !dbg !2067, !range !562
  %19 = trunc i8 %18 to i1, !dbg !2067
  br i1 %19, label %bb6, label %bb5, !dbg !2067

bb5:                                              ; preds = %bb6, %bb4
  ret void, !dbg !2068

bb6:                                              ; preds = %bb4
  br label %bb5, !dbg !2067
}

; core::option::Option<T>::ok_or
; Function Attrs: inlinehint uwtable
define internal i8* @"_ZN4core6option15Option$LT$T$GT$5ok_or17h456d19c479e6222cE"(i8* %0) unnamed_addr #0 !dbg !2069 {
start:
  %v.dbg.spill = alloca i8*, align 8
  %err.dbg.spill = alloca %"std::alloc::AllocError", align 1
  %_7 = alloca i8, align 1
  %1 = alloca i8*, align 8
  %self = alloca i8*, align 8
  store i8* %0, i8** %self, align 8
  call void @llvm.dbg.declare(metadata i8** %self, metadata !2088, metadata !DIExpression()), !dbg !2092
  call void @llvm.dbg.declare(metadata %"std::alloc::AllocError"* %err.dbg.spill, metadata !2089, metadata !DIExpression()), !dbg !2093
  store i8 0, i8* %_7, align 1, !dbg !2094
  store i8 1, i8* %_7, align 1, !dbg !2094
  %2 = bitcast i8** %self to {}**, !dbg !2094
  %3 = load {}*, {}** %2, align 8, !dbg !2094
  %4 = icmp eq {}* %3, null, !dbg !2094
  %_3 = select i1 %4, i64 0, i64 1, !dbg !2094
  switch i64 %_3, label %bb2 [
    i64 0, label %bb1
    i64 1, label %bb3
  ], !dbg !2094

bb1:                                              ; preds = %start
  store i8 0, i8* %_7, align 1, !dbg !2095
  %5 = bitcast i8** %1 to %"std::result::Result<std::ptr::NonNull<u8>, std::alloc::AllocError>::Err"*, !dbg !2096
  %6 = bitcast %"std::result::Result<std::ptr::NonNull<u8>, std::alloc::AllocError>::Err"* %5 to %"std::alloc::AllocError"*, !dbg !2096
  %7 = bitcast i8** %1 to {}**, !dbg !2096
  store {}* null, {}** %7, align 8, !dbg !2096
  br label %bb4, !dbg !2097

bb2:                                              ; preds = %start
  unreachable, !dbg !2098

bb3:                                              ; preds = %start
  %v = load i8*, i8** %self, align 8, !dbg !2099, !nonnull !4
  store i8* %v, i8** %v.dbg.spill, align 8, !dbg !2099
  call void @llvm.dbg.declare(metadata i8** %v.dbg.spill, metadata !2090, metadata !DIExpression()), !dbg !2100
  store i8* %v, i8** %1, align 8, !dbg !2101
  br label %bb4, !dbg !2097

bb4:                                              ; preds = %bb1, %bb3
  %8 = load i8, i8* %_7, align 1, !dbg !2102, !range !562
  %9 = trunc i8 %8 to i1, !dbg !2102
  br i1 %9, label %bb6, label %bb5, !dbg !2102

bb5:                                              ; preds = %bb6, %bb4
  %10 = load i8*, i8** %1, align 8, !dbg !2103
  ret i8* %10, !dbg !2103

bb6:                                              ; preds = %bb4
  br label %bb5, !dbg !2102
}

; core::option::Option<T>::ok_or
; Function Attrs: inlinehint uwtable
define internal { i64, i64 } @"_ZN4core6option15Option$LT$T$GT$5ok_or17hc21b123dfae9d161E"(i64 %0, i64 %1) unnamed_addr #0 !dbg !2104 {
start:
  %v.dbg.spill = alloca i64, align 8
  %err.dbg.spill = alloca %"std::alloc::LayoutError", align 1
  %_7 = alloca i8, align 1
  %2 = alloca { i64, i64 }, align 8
  %self = alloca { i64, i64 }, align 8
  %3 = getelementptr inbounds { i64, i64 }, { i64, i64 }* %self, i32 0, i32 0
  store i64 %0, i64* %3, align 8
  %4 = getelementptr inbounds { i64, i64 }, { i64, i64 }* %self, i32 0, i32 1
  store i64 %1, i64* %4, align 8
  call void @llvm.dbg.declare(metadata { i64, i64 }* %self, metadata !2121, metadata !DIExpression()), !dbg !2125
  call void @llvm.dbg.declare(metadata %"std::alloc::LayoutError"* %err.dbg.spill, metadata !2122, metadata !DIExpression()), !dbg !2126
  store i8 0, i8* %_7, align 1, !dbg !2127
  store i8 1, i8* %_7, align 1, !dbg !2127
  %5 = bitcast { i64, i64 }* %self to i64*, !dbg !2127
  %_3 = load i64, i64* %5, align 8, !dbg !2127, !range !746
  switch i64 %_3, label %bb2 [
    i64 0, label %bb1
    i64 1, label %bb3
  ], !dbg !2127

bb1:                                              ; preds = %start
  store i8 0, i8* %_7, align 1, !dbg !2128
  %6 = bitcast { i64, i64 }* %2 to %"std::result::Result<usize, std::alloc::LayoutError>::Err"*, !dbg !2129
  %7 = getelementptr inbounds %"std::result::Result<usize, std::alloc::LayoutError>::Err", %"std::result::Result<usize, std::alloc::LayoutError>::Err"* %6, i32 0, i32 1, !dbg !2129
  %8 = bitcast { i64, i64 }* %2 to i64*, !dbg !2129
  store i64 1, i64* %8, align 8, !dbg !2129
  br label %bb4, !dbg !2130

bb2:                                              ; preds = %start
  unreachable, !dbg !2131

bb3:                                              ; preds = %start
  %9 = bitcast { i64, i64 }* %self to %"std::option::Option<usize>::Some"*, !dbg !2132
  %10 = getelementptr inbounds %"std::option::Option<usize>::Some", %"std::option::Option<usize>::Some"* %9, i32 0, i32 1, !dbg !2132
  %v = load i64, i64* %10, align 8, !dbg !2132
  store i64 %v, i64* %v.dbg.spill, align 8, !dbg !2132
  call void @llvm.dbg.declare(metadata i64* %v.dbg.spill, metadata !2123, metadata !DIExpression()), !dbg !2133
  %11 = bitcast { i64, i64 }* %2 to %"std::result::Result<usize, std::alloc::LayoutError>::Ok"*, !dbg !2134
  %12 = getelementptr inbounds %"std::result::Result<usize, std::alloc::LayoutError>::Ok", %"std::result::Result<usize, std::alloc::LayoutError>::Ok"* %11, i32 0, i32 1, !dbg !2134
  store i64 %v, i64* %12, align 8, !dbg !2134
  %13 = bitcast { i64, i64 }* %2 to i64*, !dbg !2134
  store i64 0, i64* %13, align 8, !dbg !2134
  br label %bb4, !dbg !2130

bb4:                                              ; preds = %bb1, %bb3
  %14 = load i8, i8* %_7, align 1, !dbg !2135, !range !562
  %15 = trunc i8 %14 to i1, !dbg !2135
  br i1 %15, label %bb6, label %bb5, !dbg !2135

bb5:                                              ; preds = %bb6, %bb4
  %16 = getelementptr inbounds { i64, i64 }, { i64, i64 }* %2, i32 0, i32 0, !dbg !2136
  %17 = load i64, i64* %16, align 8, !dbg !2136, !range !746
  %18 = getelementptr inbounds { i64, i64 }, { i64, i64 }* %2, i32 0, i32 1, !dbg !2136
  %19 = load i64, i64* %18, align 8, !dbg !2136
  %20 = insertvalue { i64, i64 } undef, i64 %17, 0, !dbg !2136
  %21 = insertvalue { i64, i64 } %20, i64 %19, 1, !dbg !2136
  ret { i64, i64 } %21, !dbg !2136

bb6:                                              ; preds = %bb4
  br label %bb5, !dbg !2135
}

; core::result::Result<T,E>::unwrap
; Function Attrs: inlinehint uwtable
define internal { i64, i32 } @"_ZN4core6result19Result$LT$T$C$E$GT$6unwrap17h161ed515849134e4E"(%"std::result::Result<std::time::Duration, std::time::SystemTimeError>"* noalias nocapture dereferenceable(24) %self, %"std::panic::Location"* noalias readonly align 8 dereferenceable(24) %0) unnamed_addr #0 personality i32 (i32, i32, i64, %"unwind::libunwind::_Unwind_Exception"*, %"unwind::libunwind::_Unwind_Context"*)* @rust_eh_personality !dbg !2137 {
start:
  %t.dbg.spill = alloca { i64, i32 }, align 8
  %1 = alloca { i8*, i32 }, align 8
  %e = alloca { i64, i32 }, align 8
  call void @llvm.dbg.declare(metadata %"std::result::Result<std::time::Duration, std::time::SystemTimeError>"* %self, metadata !2164, metadata !DIExpression()), !dbg !2169
  call void @llvm.dbg.declare(metadata { i64, i32 }* %e, metadata !2167, metadata !DIExpression()), !dbg !2170
  %2 = bitcast %"std::result::Result<std::time::Duration, std::time::SystemTimeError>"* %self to i64*, !dbg !2171
  %_2 = load i64, i64* %2, align 8, !dbg !2171, !range !746
  switch i64 %_2, label %bb2 [
    i64 0, label %bb3
    i64 1, label %bb1
  ], !dbg !2171

bb1:                                              ; preds = %start
  %3 = bitcast %"std::result::Result<std::time::Duration, std::time::SystemTimeError>"* %self to %"std::result::Result<std::time::Duration, std::time::SystemTimeError>::Err"*, !dbg !2172
  %4 = getelementptr inbounds %"std::result::Result<std::time::Duration, std::time::SystemTimeError>::Err", %"std::result::Result<std::time::Duration, std::time::SystemTimeError>::Err"* %3, i32 0, i32 1, !dbg !2172
  %5 = getelementptr inbounds { i64, i32 }, { i64, i32 }* %4, i32 0, i32 0, !dbg !2172
  %6 = load i64, i64* %5, align 8, !dbg !2172
  %7 = getelementptr inbounds { i64, i32 }, { i64, i32 }* %4, i32 0, i32 1, !dbg !2172
  %8 = load i32, i32* %7, align 8, !dbg !2172
  %9 = getelementptr inbounds { i64, i32 }, { i64, i32 }* %e, i32 0, i32 0, !dbg !2172
  store i64 %6, i64* %9, align 8, !dbg !2172
  %10 = getelementptr inbounds { i64, i32 }, { i64, i32 }* %e, i32 0, i32 1, !dbg !2172
  store i32 %8, i32* %10, align 8, !dbg !2172
  %_6.0 = bitcast { i64, i32 }* %e to {}*, !dbg !2173
; invoke core::result::unwrap_failed
  invoke void @_ZN4core6result13unwrap_failed17hbb3d99b969dfb539E([0 x i8]* noalias nonnull readonly align 1 bitcast (<{ [43 x i8] }>* @alloc83 to [0 x i8]*), i64 43, {}* nonnull align 1 %_6.0, [3 x i64]* noalias readonly align 8 dereferenceable(24) bitcast ({ void ({ i64, i32 }*)*, i64, i64, i1 ({ i64, i32 }*, %"std::fmt::Formatter"*)* }* @vtable.1 to [3 x i64]*), %"std::panic::Location"* noalias readonly align 8 dereferenceable(24) %0)
          to label %unreachable unwind label %cleanup, !dbg !2174

bb2:                                              ; preds = %start
  unreachable, !dbg !2175

bb3:                                              ; preds = %start
  %11 = bitcast %"std::result::Result<std::time::Duration, std::time::SystemTimeError>"* %self to %"std::result::Result<std::time::Duration, std::time::SystemTimeError>::Ok"*, !dbg !2176
  %12 = getelementptr inbounds %"std::result::Result<std::time::Duration, std::time::SystemTimeError>::Ok", %"std::result::Result<std::time::Duration, std::time::SystemTimeError>::Ok"* %11, i32 0, i32 1, !dbg !2176
  %13 = getelementptr inbounds { i64, i32 }, { i64, i32 }* %12, i32 0, i32 0, !dbg !2176
  %t.0 = load i64, i64* %13, align 8, !dbg !2176
  %14 = getelementptr inbounds { i64, i32 }, { i64, i32 }* %12, i32 0, i32 1, !dbg !2176
  %t.1 = load i32, i32* %14, align 8, !dbg !2176
  %15 = getelementptr inbounds { i64, i32 }, { i64, i32 }* %t.dbg.spill, i32 0, i32 0, !dbg !2176
  store i64 %t.0, i64* %15, align 8, !dbg !2176
  %16 = getelementptr inbounds { i64, i32 }, { i64, i32 }* %t.dbg.spill, i32 0, i32 1, !dbg !2176
  store i32 %t.1, i32* %16, align 8, !dbg !2176
  call void @llvm.dbg.declare(metadata { i64, i32 }* %t.dbg.spill, metadata !2165, metadata !DIExpression()), !dbg !2177
  %17 = insertvalue { i64, i32 } undef, i64 %t.0, 0, !dbg !2178
  %18 = insertvalue { i64, i32 } %17, i32 %t.1, 1, !dbg !2178
  ret { i64, i32 } %18, !dbg !2178

bb4:                                              ; preds = %cleanup
  br label %bb5, !dbg !2179

bb5:                                              ; preds = %bb4
  %19 = bitcast { i8*, i32 }* %1 to i8**, !dbg !2180
  %20 = load i8*, i8** %19, align 8, !dbg !2180
  %21 = getelementptr inbounds { i8*, i32 }, { i8*, i32 }* %1, i32 0, i32 1, !dbg !2180
  %22 = load i32, i32* %21, align 8, !dbg !2180
  %23 = insertvalue { i8*, i32 } undef, i8* %20, 0, !dbg !2180
  %24 = insertvalue { i8*, i32 } %23, i32 %22, 1, !dbg !2180
  resume { i8*, i32 } %24, !dbg !2180

unreachable:                                      ; preds = %bb1
  unreachable

cleanup:                                          ; preds = %bb1
  %25 = landingpad { i8*, i32 }
          cleanup
  %26 = extractvalue { i8*, i32 } %25, 0
  %27 = extractvalue { i8*, i32 } %25, 1
  %28 = getelementptr inbounds { i8*, i32 }, { i8*, i32 }* %1, i32 0, i32 0
  store i8* %26, i8** %28, align 8
  %29 = getelementptr inbounds { i8*, i32 }, { i8*, i32 }* %1, i32 0, i32 1
  store i32 %27, i32* %29, align 8
  br label %bb4
}

; core::result::Result<T,E>::unwrap
; Function Attrs: inlinehint uwtable
define internal void @"_ZN4core6result19Result$LT$T$C$E$GT$6unwrap17h4708d81394a6ae87E"(%"std::string::String"* noalias nocapture sret dereferenceable(24) %t, %"std::result::Result<std::string::String, std::io::Error>"* noalias nocapture dereferenceable(32) %self, %"std::panic::Location"* noalias readonly align 8 dereferenceable(24) %0) unnamed_addr #0 personality i32 (i32, i32, i64, %"unwind::libunwind::_Unwind_Exception"*, %"unwind::libunwind::_Unwind_Context"*)* @rust_eh_personality !dbg !2181 {
start:
  %1 = alloca { i8*, i32 }, align 8
  %e = alloca %"std::io::Error", align 8
  call void @llvm.dbg.declare(metadata %"std::string::String"* %t, metadata !2186, metadata !DIExpression()), !dbg !2190
  call void @llvm.dbg.declare(metadata %"std::result::Result<std::string::String, std::io::Error>"* %self, metadata !2185, metadata !DIExpression()), !dbg !2191
  call void @llvm.dbg.declare(metadata %"std::io::Error"* %e, metadata !2188, metadata !DIExpression()), !dbg !2192
  %2 = bitcast %"std::result::Result<std::string::String, std::io::Error>"* %self to i64*, !dbg !2193
  %_2 = load i64, i64* %2, align 8, !dbg !2193, !range !746
  switch i64 %_2, label %bb2 [
    i64 0, label %bb3
    i64 1, label %bb1
  ], !dbg !2193

bb1:                                              ; preds = %start
  %3 = bitcast %"std::result::Result<std::string::String, std::io::Error>"* %self to %"std::result::Result<std::string::String, std::io::Error>::Err"*, !dbg !2194
  %4 = getelementptr inbounds %"std::result::Result<std::string::String, std::io::Error>::Err", %"std::result::Result<std::string::String, std::io::Error>::Err"* %3, i32 0, i32 1, !dbg !2194
  %5 = bitcast %"std::io::Error"* %e to i8*, !dbg !2194
  %6 = bitcast %"std::io::Error"* %4 to i8*, !dbg !2194
  call void @llvm.memcpy.p0i8.p0i8.i64(i8* align 8 %5, i8* align 8 %6, i64 16, i1 false), !dbg !2194
  %_6.0 = bitcast %"std::io::Error"* %e to {}*, !dbg !2195
; invoke core::result::unwrap_failed
  invoke void @_ZN4core6result13unwrap_failed17hbb3d99b969dfb539E([0 x i8]* noalias nonnull readonly align 1 bitcast (<{ [43 x i8] }>* @alloc83 to [0 x i8]*), i64 43, {}* nonnull align 1 %_6.0, [3 x i64]* noalias readonly align 8 dereferenceable(24) bitcast ({ void (%"std::io::Error"*)*, i64, i64, i1 (%"std::io::Error"*, %"std::fmt::Formatter"*)* }* @vtable.2 to [3 x i64]*), %"std::panic::Location"* noalias readonly align 8 dereferenceable(24) %0)
          to label %unreachable unwind label %cleanup, !dbg !2196

bb2:                                              ; preds = %start
  unreachable, !dbg !2197

bb3:                                              ; preds = %start
  %7 = bitcast %"std::result::Result<std::string::String, std::io::Error>"* %self to %"std::result::Result<std::string::String, std::io::Error>::Ok"*, !dbg !2198
  %8 = getelementptr inbounds %"std::result::Result<std::string::String, std::io::Error>::Ok", %"std::result::Result<std::string::String, std::io::Error>::Ok"* %7, i32 0, i32 1, !dbg !2198
  %9 = bitcast %"std::string::String"* %t to i8*, !dbg !2198
  %10 = bitcast %"std::string::String"* %8 to i8*, !dbg !2198
  call void @llvm.memcpy.p0i8.p0i8.i64(i8* align 8 %9, i8* align 8 %10, i64 24, i1 false), !dbg !2198
  ret void, !dbg !2199

bb4:                                              ; preds = %cleanup
; call core::ptr::drop_in_place<std::io::error::Error>
  call void @"_ZN4core3ptr42drop_in_place$LT$std..io..error..Error$GT$17hf39af0eac76d8474E"(%"std::io::Error"* %e) #13, !dbg !2200
  br label %bb5, !dbg !2200

bb5:                                              ; preds = %bb4
  %11 = bitcast { i8*, i32 }* %1 to i8**, !dbg !2201
  %12 = load i8*, i8** %11, align 8, !dbg !2201
  %13 = getelementptr inbounds { i8*, i32 }, { i8*, i32 }* %1, i32 0, i32 1, !dbg !2201
  %14 = load i32, i32* %13, align 8, !dbg !2201
  %15 = insertvalue { i8*, i32 } undef, i8* %12, 0, !dbg !2201
  %16 = insertvalue { i8*, i32 } %15, i32 %14, 1, !dbg !2201
  resume { i8*, i32 } %16, !dbg !2201

unreachable:                                      ; preds = %bb1
  unreachable

cleanup:                                          ; preds = %bb1
  %17 = landingpad { i8*, i32 }
          cleanup
  %18 = extractvalue { i8*, i32 } %17, 0
  %19 = extractvalue { i8*, i32 } %17, 1
  %20 = getelementptr inbounds { i8*, i32 }, { i8*, i32 }* %1, i32 0, i32 0
  store i8* %18, i8** %20, align 8
  %21 = getelementptr inbounds { i8*, i32 }, { i8*, i32 }* %1, i32 0, i32 1
  store i32 %19, i32* %21, align 8
  br label %bb4
}

; core::result::Result<T,E>::unwrap
; Function Attrs: inlinehint uwtable
define internal { i64, i64 } @"_ZN4core6result19Result$LT$T$C$E$GT$6unwrap17h488b4d1a8bc19030E"(i64 %0, i64 %1, %"std::panic::Location"* noalias readonly align 8 dereferenceable(24) %2) unnamed_addr #0 personality i32 (i32, i32, i64, %"unwind::libunwind::_Unwind_Exception"*, %"unwind::libunwind::_Unwind_Context"*)* @rust_eh_personality !dbg !2202 {
start:
  %t.dbg.spill = alloca { i64, i64 }, align 8
  %3 = alloca { i8*, i32 }, align 8
  %e = alloca %"std::alloc::LayoutError", align 1
  %self = alloca { i64, i64 }, align 8
  %4 = getelementptr inbounds { i64, i64 }, { i64, i64 }* %self, i32 0, i32 0
  store i64 %0, i64* %4, align 8
  %5 = getelementptr inbounds { i64, i64 }, { i64, i64 }* %self, i32 0, i32 1
  store i64 %1, i64* %5, align 8
  call void @llvm.dbg.declare(metadata { i64, i64 }* %self, metadata !2206, metadata !DIExpression()), !dbg !2211
  call void @llvm.dbg.declare(metadata %"std::alloc::LayoutError"* %e, metadata !2209, metadata !DIExpression()), !dbg !2212
  %6 = getelementptr inbounds { i64, i64 }, { i64, i64 }* %self, i32 0, i32 1, !dbg !2213
  %7 = load i64, i64* %6, align 8, !dbg !2213
  %8 = icmp eq i64 %7, 0, !dbg !2213
  %_2 = select i1 %8, i64 1, i64 0, !dbg !2213
  switch i64 %_2, label %bb2 [
    i64 0, label %bb3
    i64 1, label %bb1
  ], !dbg !2213

bb1:                                              ; preds = %start
  %_6.0 = bitcast %"std::alloc::LayoutError"* %e to {}*, !dbg !2214
; invoke core::result::unwrap_failed
  invoke void @_ZN4core6result13unwrap_failed17hbb3d99b969dfb539E([0 x i8]* noalias nonnull readonly align 1 bitcast (<{ [43 x i8] }>* @alloc83 to [0 x i8]*), i64 43, {}* nonnull align 1 %_6.0, [3 x i64]* noalias readonly align 8 dereferenceable(24) bitcast ({ void (%"std::alloc::LayoutError"*)*, i64, i64, i1 (%"std::alloc::LayoutError"*, %"std::fmt::Formatter"*)* }* @vtable.3 to [3 x i64]*), %"std::panic::Location"* noalias readonly align 8 dereferenceable(24) %2)
          to label %unreachable unwind label %cleanup, !dbg !2215

bb2:                                              ; preds = %start
  unreachable, !dbg !2216

bb3:                                              ; preds = %start
  %9 = getelementptr inbounds { i64, i64 }, { i64, i64 }* %self, i32 0, i32 0, !dbg !2217
  %t.0 = load i64, i64* %9, align 8, !dbg !2217
  %10 = getelementptr inbounds { i64, i64 }, { i64, i64 }* %self, i32 0, i32 1, !dbg !2217
  %t.1 = load i64, i64* %10, align 8, !dbg !2217, !range !841
  %11 = getelementptr inbounds { i64, i64 }, { i64, i64 }* %t.dbg.spill, i32 0, i32 0, !dbg !2217
  store i64 %t.0, i64* %11, align 8, !dbg !2217
  %12 = getelementptr inbounds { i64, i64 }, { i64, i64 }* %t.dbg.spill, i32 0, i32 1, !dbg !2217
  store i64 %t.1, i64* %12, align 8, !dbg !2217
  call void @llvm.dbg.declare(metadata { i64, i64 }* %t.dbg.spill, metadata !2207, metadata !DIExpression()), !dbg !2218
  %13 = insertvalue { i64, i64 } undef, i64 %t.0, 0, !dbg !2219
  %14 = insertvalue { i64, i64 } %13, i64 %t.1, 1, !dbg !2219
  ret { i64, i64 } %14, !dbg !2219

bb4:                                              ; preds = %cleanup
  br label %bb5, !dbg !2220

bb5:                                              ; preds = %bb4
  %15 = bitcast { i8*, i32 }* %3 to i8**, !dbg !2221
  %16 = load i8*, i8** %15, align 8, !dbg !2221
  %17 = getelementptr inbounds { i8*, i32 }, { i8*, i32 }* %3, i32 0, i32 1, !dbg !2221
  %18 = load i32, i32* %17, align 8, !dbg !2221
  %19 = insertvalue { i8*, i32 } undef, i8* %16, 0, !dbg !2221
  %20 = insertvalue { i8*, i32 } %19, i32 %18, 1, !dbg !2221
  resume { i8*, i32 } %20, !dbg !2221

unreachable:                                      ; preds = %bb1
  unreachable

cleanup:                                          ; preds = %bb1
  %21 = landingpad { i8*, i32 }
          cleanup
  %22 = extractvalue { i8*, i32 } %21, 0
  %23 = extractvalue { i8*, i32 } %21, 1
  %24 = getelementptr inbounds { i8*, i32 }, { i8*, i32 }* %3, i32 0, i32 0
  store i8* %22, i8** %24, align 8
  %25 = getelementptr inbounds { i8*, i32 }, { i8*, i32 }* %3, i32 0, i32 1
  store i32 %23, i32* %25, align 8
  br label %bb4
}

; core::result::Result<T,E>::map_err
; Function Attrs: inlinehint uwtable
define internal void @"_ZN4core6result19Result$LT$T$C$E$GT$7map_err17h1e7c0e098ed8f294E"(%"std::result::Result<std::ptr::NonNull<[u8]>, std::collections::TryReserveError>"* noalias nocapture sret dereferenceable(24) %0, i8* %1, i64 %2, i64* noalias readonly align 8 dereferenceable(16) %op) unnamed_addr #0 !dbg !2222 {
start:
  %t.dbg.spill = alloca { i8*, i64 }, align 8
  %e.dbg.spill = alloca %"std::alloc::AllocError", align 1
  %op.dbg.spill = alloca i64*, align 8
  %_11 = alloca i8, align 1
  %_9 = alloca { [0 x i8], %"std::alloc::AllocError", [0 x i8] }, align 1
  %self = alloca { i8*, i64 }, align 8
  %3 = getelementptr inbounds { i8*, i64 }, { i8*, i64 }* %self, i32 0, i32 0
  store i8* %1, i8** %3, align 8
  %4 = getelementptr inbounds { i8*, i64 }, { i8*, i64 }* %self, i32 0, i32 1
  store i64 %2, i64* %4, align 8
  call void @llvm.dbg.declare(metadata { i8*, i64 }* %self, metadata !2257, metadata !DIExpression()), !dbg !2266
  store i64* %op, i64** %op.dbg.spill, align 8
  call void @llvm.dbg.declare(metadata i64** %op.dbg.spill, metadata !2258, metadata !DIExpression()), !dbg !2267
  call void @llvm.dbg.declare(metadata %"std::alloc::AllocError"* %e.dbg.spill, metadata !2261, metadata !DIExpression()), !dbg !2268
  store i8 0, i8* %_11, align 1, !dbg !2269
  store i8 1, i8* %_11, align 1, !dbg !2269
  %5 = bitcast { i8*, i64 }* %self to {}**, !dbg !2269
  %6 = load {}*, {}** %5, align 8, !dbg !2269
  %7 = icmp eq {}* %6, null, !dbg !2269
  %_3 = select i1 %7, i64 1, i64 0, !dbg !2269
  switch i64 %_3, label %bb2 [
    i64 0, label %bb3
    i64 1, label %bb1
  ], !dbg !2269

bb1:                                              ; preds = %start
  store i8 0, i8* %_11, align 1, !dbg !2270
  %8 = bitcast { [0 x i8], %"std::alloc::AllocError", [0 x i8] }* %_9 to %"std::alloc::AllocError"*, !dbg !2270
; call alloc::raw_vec::finish_grow::{{closure}}
  %9 = call { i64, i64 } @"_ZN5alloc7raw_vec11finish_grow28_$u7b$$u7b$closure$u7d$$u7d$17h9cf9354ad48e82baE"(i64* noalias readonly align 8 dereferenceable(16) %op), !dbg !2270
  %_7.0 = extractvalue { i64, i64 } %9, 0, !dbg !2270
  %_7.1 = extractvalue { i64, i64 } %9, 1, !dbg !2270
  br label %bb4, !dbg !2270

bb2:                                              ; preds = %start
  unreachable, !dbg !2271

bb3:                                              ; preds = %start
  %10 = getelementptr inbounds { i8*, i64 }, { i8*, i64 }* %self, i32 0, i32 0, !dbg !2272
  %t.0 = load i8*, i8** %10, align 8, !dbg !2272, !nonnull !4
  %11 = getelementptr inbounds { i8*, i64 }, { i8*, i64 }* %self, i32 0, i32 1, !dbg !2272
  %t.1 = load i64, i64* %11, align 8, !dbg !2272
  %12 = getelementptr inbounds { i8*, i64 }, { i8*, i64 }* %t.dbg.spill, i32 0, i32 0, !dbg !2272
  store i8* %t.0, i8** %12, align 8, !dbg !2272
  %13 = getelementptr inbounds { i8*, i64 }, { i8*, i64 }* %t.dbg.spill, i32 0, i32 1, !dbg !2272
  store i64 %t.1, i64* %13, align 8, !dbg !2272
  call void @llvm.dbg.declare(metadata { i8*, i64 }* %t.dbg.spill, metadata !2259, metadata !DIExpression()), !dbg !2273
  %14 = bitcast %"std::result::Result<std::ptr::NonNull<[u8]>, std::collections::TryReserveError>"* %0 to %"std::result::Result<std::ptr::NonNull<[u8]>, std::collections::TryReserveError>::Ok"*, !dbg !2274
  %15 = getelementptr inbounds %"std::result::Result<std::ptr::NonNull<[u8]>, std::collections::TryReserveError>::Ok", %"std::result::Result<std::ptr::NonNull<[u8]>, std::collections::TryReserveError>::Ok"* %14, i32 0, i32 1, !dbg !2274
  %16 = getelementptr inbounds { i8*, i64 }, { i8*, i64 }* %15, i32 0, i32 0, !dbg !2274
  store i8* %t.0, i8** %16, align 8, !dbg !2274
  %17 = getelementptr inbounds { i8*, i64 }, { i8*, i64 }* %15, i32 0, i32 1, !dbg !2274
  store i64 %t.1, i64* %17, align 8, !dbg !2274
  %18 = bitcast %"std::result::Result<std::ptr::NonNull<[u8]>, std::collections::TryReserveError>"* %0 to i64*, !dbg !2274
  store i64 0, i64* %18, align 8, !dbg !2274
  br label %bb5, !dbg !2275

bb4:                                              ; preds = %bb1
  %19 = bitcast %"std::result::Result<std::ptr::NonNull<[u8]>, std::collections::TryReserveError>"* %0 to %"std::result::Result<std::ptr::NonNull<[u8]>, std::collections::TryReserveError>::Err"*, !dbg !2276
  %20 = getelementptr inbounds %"std::result::Result<std::ptr::NonNull<[u8]>, std::collections::TryReserveError>::Err", %"std::result::Result<std::ptr::NonNull<[u8]>, std::collections::TryReserveError>::Err"* %19, i32 0, i32 1, !dbg !2276
  %21 = getelementptr inbounds { i64, i64 }, { i64, i64 }* %20, i32 0, i32 0, !dbg !2276
  store i64 %_7.0, i64* %21, align 8, !dbg !2276
  %22 = getelementptr inbounds { i64, i64 }, { i64, i64 }* %20, i32 0, i32 1, !dbg !2276
  store i64 %_7.1, i64* %22, align 8, !dbg !2276
  %23 = bitcast %"std::result::Result<std::ptr::NonNull<[u8]>, std::collections::TryReserveError>"* %0 to i64*, !dbg !2276
  store i64 1, i64* %23, align 8, !dbg !2276
  br label %bb5, !dbg !2275

bb5:                                              ; preds = %bb3, %bb4
  %24 = load i8, i8* %_11, align 1, !dbg !2277, !range !562
  %25 = trunc i8 %24 to i1, !dbg !2277
  br i1 %25, label %bb7, label %bb6, !dbg !2277

bb6:                                              ; preds = %bb7, %bb5
  ret void, !dbg !2278

bb7:                                              ; preds = %bb5
  br label %bb6, !dbg !2277
}

; core::result::Result<T,E>::map_err
; Function Attrs: inlinehint uwtable
define internal void @"_ZN4core6result19Result$LT$T$C$E$GT$7map_err17hcf5831a470aace55E"(%"std::result::Result<std::alloc::Layout, std::collections::TryReserveError>"* noalias nocapture sret dereferenceable(24) %0, i64 %1, i64 %2) unnamed_addr #0 !dbg !2279 {
start:
  %t.dbg.spill = alloca { i64, i64 }, align 8
  %e.dbg.spill = alloca %"std::alloc::LayoutError", align 1
  %op.dbg.spill = alloca %"[closure@alloc::raw_vec::finish_grow<std::alloc::Global>::{closure#0}]", align 1
  %_11 = alloca i8, align 1
  %_9 = alloca { [0 x i8], %"std::alloc::LayoutError", [0 x i8] }, align 1
  %self = alloca { i64, i64 }, align 8
  %3 = getelementptr inbounds { i64, i64 }, { i64, i64 }* %self, i32 0, i32 0
  store i64 %1, i64* %3, align 8
  %4 = getelementptr inbounds { i64, i64 }, { i64, i64 }* %self, i32 0, i32 1
  store i64 %2, i64* %4, align 8
  call void @llvm.dbg.declare(metadata { i64, i64 }* %self, metadata !2297, metadata !DIExpression()), !dbg !2305
  call void @llvm.dbg.declare(metadata %"[closure@alloc::raw_vec::finish_grow<std::alloc::Global>::{closure#0}]"* %op.dbg.spill, metadata !2298, metadata !DIExpression()), !dbg !2306
  call void @llvm.dbg.declare(metadata %"std::alloc::LayoutError"* %e.dbg.spill, metadata !2301, metadata !DIExpression()), !dbg !2307
  store i8 0, i8* %_11, align 1, !dbg !2308
  store i8 1, i8* %_11, align 1, !dbg !2308
  %5 = getelementptr inbounds { i64, i64 }, { i64, i64 }* %self, i32 0, i32 1, !dbg !2308
  %6 = load i64, i64* %5, align 8, !dbg !2308
  %7 = icmp eq i64 %6, 0, !dbg !2308
  %_3 = select i1 %7, i64 1, i64 0, !dbg !2308
  switch i64 %_3, label %bb2 [
    i64 0, label %bb3
    i64 1, label %bb1
  ], !dbg !2308

bb1:                                              ; preds = %start
  store i8 0, i8* %_11, align 1, !dbg !2309
  %8 = bitcast { [0 x i8], %"std::alloc::LayoutError", [0 x i8] }* %_9 to %"std::alloc::LayoutError"*, !dbg !2309
; call alloc::raw_vec::finish_grow::{{closure}}
  %9 = call { i64, i64 } @"_ZN5alloc7raw_vec11finish_grow28_$u7b$$u7b$closure$u7d$$u7d$17ha20452835c1ecd7dE"(), !dbg !2309
  %_7.0 = extractvalue { i64, i64 } %9, 0, !dbg !2309
  %_7.1 = extractvalue { i64, i64 } %9, 1, !dbg !2309
  br label %bb4, !dbg !2309

bb2:                                              ; preds = %start
  unreachable, !dbg !2310

bb3:                                              ; preds = %start
  %10 = getelementptr inbounds { i64, i64 }, { i64, i64 }* %self, i32 0, i32 0, !dbg !2311
  %t.0 = load i64, i64* %10, align 8, !dbg !2311
  %11 = getelementptr inbounds { i64, i64 }, { i64, i64 }* %self, i32 0, i32 1, !dbg !2311
  %t.1 = load i64, i64* %11, align 8, !dbg !2311, !range !841
  %12 = getelementptr inbounds { i64, i64 }, { i64, i64 }* %t.dbg.spill, i32 0, i32 0, !dbg !2311
  store i64 %t.0, i64* %12, align 8, !dbg !2311
  %13 = getelementptr inbounds { i64, i64 }, { i64, i64 }* %t.dbg.spill, i32 0, i32 1, !dbg !2311
  store i64 %t.1, i64* %13, align 8, !dbg !2311
  call void @llvm.dbg.declare(metadata { i64, i64 }* %t.dbg.spill, metadata !2299, metadata !DIExpression()), !dbg !2312
  %14 = bitcast %"std::result::Result<std::alloc::Layout, std::collections::TryReserveError>"* %0 to %"std::result::Result<std::alloc::Layout, std::collections::TryReserveError>::Ok"*, !dbg !2313
  %15 = getelementptr inbounds %"std::result::Result<std::alloc::Layout, std::collections::TryReserveError>::Ok", %"std::result::Result<std::alloc::Layout, std::collections::TryReserveError>::Ok"* %14, i32 0, i32 1, !dbg !2313
  %16 = getelementptr inbounds { i64, i64 }, { i64, i64 }* %15, i32 0, i32 0, !dbg !2313
  store i64 %t.0, i64* %16, align 8, !dbg !2313
  %17 = getelementptr inbounds { i64, i64 }, { i64, i64 }* %15, i32 0, i32 1, !dbg !2313
  store i64 %t.1, i64* %17, align 8, !dbg !2313
  %18 = bitcast %"std::result::Result<std::alloc::Layout, std::collections::TryReserveError>"* %0 to i64*, !dbg !2313
  store i64 0, i64* %18, align 8, !dbg !2313
  br label %bb5, !dbg !2314

bb4:                                              ; preds = %bb1
  %19 = bitcast %"std::result::Result<std::alloc::Layout, std::collections::TryReserveError>"* %0 to %"std::result::Result<std::alloc::Layout, std::collections::TryReserveError>::Err"*, !dbg !2315
  %20 = getelementptr inbounds %"std::result::Result<std::alloc::Layout, std::collections::TryReserveError>::Err", %"std::result::Result<std::alloc::Layout, std::collections::TryReserveError>::Err"* %19, i32 0, i32 1, !dbg !2315
  %21 = getelementptr inbounds { i64, i64 }, { i64, i64 }* %20, i32 0, i32 0, !dbg !2315
  store i64 %_7.0, i64* %21, align 8, !dbg !2315
  %22 = getelementptr inbounds { i64, i64 }, { i64, i64 }* %20, i32 0, i32 1, !dbg !2315
  store i64 %_7.1, i64* %22, align 8, !dbg !2315
  %23 = bitcast %"std::result::Result<std::alloc::Layout, std::collections::TryReserveError>"* %0 to i64*, !dbg !2315
  store i64 1, i64* %23, align 8, !dbg !2315
  br label %bb5, !dbg !2314

bb5:                                              ; preds = %bb3, %bb4
  %24 = load i8, i8* %_11, align 1, !dbg !2316, !range !562
  %25 = trunc i8 %24 to i1, !dbg !2316
  br i1 %25, label %bb7, label %bb6, !dbg !2316

bb6:                                              ; preds = %bb7, %bb5
  ret void, !dbg !2317

bb7:                                              ; preds = %bb5
  br label %bb6, !dbg !2316
}

; core::convert::num::<impl core::convert::From<i32> for i64>::from
; Function Attrs: inlinehint uwtable
define internal i64 @"_ZN4core7convert3num64_$LT$impl$u20$core..convert..From$LT$i32$GT$$u20$for$u20$i64$GT$4from17hc650e181389db578E"(i32 %small) unnamed_addr #0 !dbg !2318 {
start:
  %small.dbg.spill = alloca i32, align 4
  store i32 %small, i32* %small.dbg.spill, align 4
  call void @llvm.dbg.declare(metadata i32* %small.dbg.spill, metadata !2326, metadata !DIExpression()), !dbg !2327
  %0 = sext i32 %small to i64, !dbg !2328
  ret i64 %0, !dbg !2329
}

; <T as core::convert::From<T>>::from
; Function Attrs: uwtable
define internal void @"_ZN50_$LT$T$u20$as$u20$core..convert..From$LT$T$GT$$GT$4from17h028faf9c20ec9d0fE"(%BS* noalias nocapture sret dereferenceable(24) %0, %BS* noalias nocapture dereferenceable(24) %t) unnamed_addr #2 !dbg !2330 {
start:
  call void @llvm.dbg.declare(metadata %BS* %t, metadata !2336, metadata !DIExpression()), !dbg !2337
  %1 = bitcast %BS* %0 to i8*, !dbg !2338
  %2 = bitcast %BS* %t to i8*, !dbg !2338
  call void @llvm.memcpy.p0i8.p0i8.i64(i8* align 8 %1, i8* align 8 %2, i64 24, i1 false), !dbg !2338
  ret void, !dbg !2339
}

; <T as core::convert::From<T>>::from
; Function Attrs: uwtable
define internal void @"_ZN50_$LT$T$u20$as$u20$core..convert..From$LT$T$GT$$GT$4from17had698c3bf3a7a162E"() unnamed_addr #2 !dbg !2340 {
start:
  %t.dbg.spill = alloca %"std::alloc::LayoutError", align 1
  call void @llvm.dbg.declare(metadata %"std::alloc::LayoutError"* %t.dbg.spill, metadata !2344, metadata !DIExpression()), !dbg !2345
  ret void, !dbg !2346
}

; <T as core::convert::From<T>>::from
; Function Attrs: uwtable
define internal { i64, i64 } @"_ZN50_$LT$T$u20$as$u20$core..convert..From$LT$T$GT$$GT$4from17hd08c84ce1b987960E"(i64 %t.0, i64 %t.1) unnamed_addr #2 !dbg !2347 {
start:
  %t.dbg.spill = alloca { i64, i64 }, align 8
  %0 = getelementptr inbounds { i64, i64 }, { i64, i64 }* %t.dbg.spill, i32 0, i32 0
  store i64 %t.0, i64* %0, align 8
  %1 = getelementptr inbounds { i64, i64 }, { i64, i64 }* %t.dbg.spill, i32 0, i32 1
  store i64 %t.1, i64* %1, align 8
  call void @llvm.dbg.declare(metadata { i64, i64 }* %t.dbg.spill, metadata !2351, metadata !DIExpression()), !dbg !2354
  %2 = insertvalue { i64, i64 } undef, i64 %t.0, 0, !dbg !2355
  %3 = insertvalue { i64, i64 } %2, i64 %t.1, 1, !dbg !2355
  ret { i64, i64 } %3, !dbg !2355
}

; <T as core::convert::From<T>>::from
; Function Attrs: uwtable
define internal void @"_ZN50_$LT$T$u20$as$u20$core..convert..From$LT$T$GT$$GT$4from17heda856dd20c24b3aE"() unnamed_addr #2 !dbg !2356 {
start:
  %t.dbg.spill = alloca %"std::alloc::AllocError", align 1
  call void @llvm.dbg.declare(metadata %"std::alloc::AllocError"* %t.dbg.spill, metadata !2360, metadata !DIExpression()), !dbg !2363
  ret void, !dbg !2364
}

; <T as core::convert::Into<U>>::into
; Function Attrs: uwtable
define internal void @"_ZN50_$LT$T$u20$as$u20$core..convert..Into$LT$U$GT$$GT$4into17ha6b7d7abce8a8e87E"(%BS* noalias nocapture sret dereferenceable(24) %0, %BS* noalias nocapture dereferenceable(24) %self) unnamed_addr #2 !dbg !2365 {
start:
  %_2 = alloca %BS, align 8
  call void @llvm.dbg.declare(metadata %BS* %self, metadata !2367, metadata !DIExpression()), !dbg !2370
  %1 = bitcast %BS* %_2 to i8*, !dbg !2371
  %2 = bitcast %BS* %self to i8*, !dbg !2371
  call void @llvm.memcpy.p0i8.p0i8.i64(i8* align 8 %1, i8* align 8 %2, i64 24, i1 false), !dbg !2371
; call <T as core::convert::From<T>>::from
  call void @"_ZN50_$LT$T$u20$as$u20$core..convert..From$LT$T$GT$$GT$4from17h028faf9c20ec9d0fE"(%BS* noalias nocapture sret dereferenceable(24) %0, %BS* noalias nocapture dereferenceable(24) %_2), !dbg !2372
  br label %bb1, !dbg !2372

bb1:                                              ; preds = %start
  ret void, !dbg !2373
}

; <T as core::convert::Into<U>>::into
; Function Attrs: uwtable
define internal nonnull i8* @"_ZN50_$LT$T$u20$as$u20$core..convert..Into$LT$U$GT$$GT$4into17hc9bd009797094b1aE"(i8* nonnull %self) unnamed_addr #2 !dbg !2374 {
start:
  %self.dbg.spill = alloca i8*, align 8
  store i8* %self, i8** %self.dbg.spill, align 8
  call void @llvm.dbg.declare(metadata i8** %self.dbg.spill, metadata !2376, metadata !DIExpression()), !dbg !2380
; call <core::ptr::non_null::NonNull<T> as core::convert::From<core::ptr::unique::Unique<T>>>::from
  %0 = call nonnull i8* @"_ZN119_$LT$core..ptr..non_null..NonNull$LT$T$GT$$u20$as$u20$core..convert..From$LT$core..ptr..unique..Unique$LT$T$GT$$GT$$GT$4from17h60ee2857a112286bE"(i8* nonnull %self), !dbg !2381
  br label %bb1, !dbg !2381

bb1:                                              ; preds = %start
  ret i8* %0, !dbg !2382
}

; <T as core::convert::Into<U>>::into
; Function Attrs: uwtable
define internal i64 @"_ZN50_$LT$T$u20$as$u20$core..convert..Into$LT$U$GT$$GT$4into17hfd8b9f15f4f060efE"(i32 %self) unnamed_addr #2 !dbg !2383 {
start:
  %self.dbg.spill = alloca i32, align 4
  store i32 %self, i32* %self.dbg.spill, align 4
  call void @llvm.dbg.declare(metadata i32* %self.dbg.spill, metadata !2385, metadata !DIExpression()), !dbg !2388
; call core::convert::num::<impl core::convert::From<i32> for i64>::from
  %0 = call i64 @"_ZN4core7convert3num64_$LT$impl$u20$core..convert..From$LT$i32$GT$$u20$for$u20$i64$GT$4from17hc650e181389db578E"(i32 %self), !dbg !2389
  br label %bb1, !dbg !2389

bb1:                                              ; preds = %start
  ret i64 %0, !dbg !2390
}

; <() as std::process::Termination>::report
; Function Attrs: inlinehint uwtable
define internal i32 @"_ZN54_$LT$$LP$$RP$$u20$as$u20$std..process..Termination$GT$6report17h9c5aa91c47cc087eE"() unnamed_addr #0 !dbg !2391 {
start:
  %self.dbg.spill = alloca {}, align 1
  call void @llvm.dbg.declare(metadata {}* %self.dbg.spill, metadata !2398, metadata !DIExpression()), !dbg !2399
; call <std::process::ExitCode as std::process::Termination>::report
  %0 = call i32 @"_ZN68_$LT$std..process..ExitCode$u20$as$u20$std..process..Termination$GT$6report17h9c850839dbcadf30E"(i8 0), !dbg !2400
  br label %bb1, !dbg !2400

bb1:                                              ; preds = %start
  ret i32 %0, !dbg !2401
}

; <&T as core::convert::AsRef<U>>::as_ref
; Function Attrs: uwtable
define internal { %"std::path::Path"*, i64 } @"_ZN55_$LT$$RF$T$u20$as$u20$core..convert..AsRef$LT$U$GT$$GT$6as_ref17hb7f4295cae3387b2E"({ [0 x i8]*, i64 }* noalias readonly align 8 dereferenceable(16) %self) unnamed_addr #2 !dbg !2402 {
start:
  %self.dbg.spill = alloca { [0 x i8]*, i64 }*, align 8
  store { [0 x i8]*, i64 }* %self, { [0 x i8]*, i64 }** %self.dbg.spill, align 8
  call void @llvm.dbg.declare(metadata { [0 x i8]*, i64 }** %self.dbg.spill, metadata !2406, metadata !DIExpression()), !dbg !2409
  %0 = getelementptr inbounds { [0 x i8]*, i64 }, { [0 x i8]*, i64 }* %self, i32 0, i32 0, !dbg !2410
  %_2.0 = load [0 x i8]*, [0 x i8]** %0, align 8, !dbg !2410, !nonnull !4
  %1 = getelementptr inbounds { [0 x i8]*, i64 }, { [0 x i8]*, i64 }* %self, i32 0, i32 1, !dbg !2410
  %_2.1 = load i64, i64* %1, align 8, !dbg !2410
; call std::path::<impl core::convert::AsRef<std::path::Path> for str>::as_ref
  %2 = call { %"std::path::Path"*, i64 } @"_ZN3std4path77_$LT$impl$u20$core..convert..AsRef$LT$std..path..Path$GT$$u20$for$u20$str$GT$6as_ref17h0ec203b87849bbf6E"([0 x i8]* noalias nonnull readonly align 1 %_2.0, i64 %_2.1), !dbg !2411
  %3 = extractvalue { %"std::path::Path"*, i64 } %2, 0, !dbg !2411
  %4 = extractvalue { %"std::path::Path"*, i64 } %2, 1, !dbg !2411
  br label %bb1, !dbg !2411

bb1:                                              ; preds = %start
  %5 = insertvalue { %"std::path::Path"*, i64 } undef, %"std::path::Path"* %3, 0, !dbg !2412
